====
    Copyright (C) 2009-2013 Barchart, Inc. <http://www.barchart.com/>

    All rights reserved. Licensed under the OSI BSD License.

    http://www.opensource.org/licenses/bsd-license.php
====

libSocketUDT-linux-x86-64.so:     file format elf64-x86-64

DYNAMIC SYMBOL TABLE:
0000000000022b60 l    d  .init	0000000000000000              .init
0000000000000000      DF *UND*	0000000000000000  GLIBCXX_3.4 _ZSt20__throw_length_errorPKc
0000000000000000      DF *UND*	0000000000000000  GLIBCXX_3.4 _ZNSolsEl
0000000000000000      DF *UND*	0000000000000000  GLIBCXX_3.4 _ZNSsaSEPKc
0000000000000000      DF *UND*	0000000000000000  GLIBCXX_3.4 _ZNSsC1Ev
0000000000000000      DF *UND*	0000000000000000  GLIBC_2.2.5 pthread_getspecific
0000000000000000      DF *UND*	0000000000000000  GLIBC_2.3.2 pthread_cond_destroy
0000000000000000      DF *UND*	0000000000000000  GLIBCXX_3.4 _ZNSolsEi
0000000000000000      DF *UND*	0000000000000000  GLIBCXX_3.4 _ZNSspLEPKc
0000000000000000      DF *UND*	0000000000000000  GLIBCXX_3.4 _ZNSo5seekpESt4fposI11__mbstate_tE
0000000000000000      DF *UND*	0000000000000000  GLIBC_2.2.5 memset
0000000000000000      DF *UND*	0000000000000000  GLIBCXX_3.4 _ZSt18_Rb_tree_decrementPKSt18_Rb_tree_node_base
0000000000000000      DF *UND*	0000000000000000  GLIBC_2.2.5 close
0000000000000000      DF *UND*	0000000000000000  GLIBCXX_3.4 _ZNKSi6gcountEv
0000000000000000      DF *UND*	0000000000000000  GLIBC_2.2.5 pthread_setspecific
0000000000000000  w   D  *UND*	0000000000000000              __gmon_start__
0000000000000000  w   D  *UND*	0000000000000000              _Jv_RegisterClasses
0000000000000000      DF *UND*	0000000000000000  GLIBC_2.2.5 recvmsg
0000000000000000      DF *UND*	0000000000000000  GLIBCXX_3.4 _ZNKSs5c_strEv
0000000000000000      DF *UND*	0000000000000000  GLIBCXX_3.4 _Znam
0000000000000000      DF *UND*	0000000000000000  GLIBC_2.3.2 pthread_cond_signal
0000000000000000      DF *UND*	0000000000000000  GLIBCXX_3.4 _ZdlPv
0000000000000000      DF *UND*	0000000000000000  GLIBC_2.2.5 htons
0000000000000000      DF *UND*	0000000000000000  GLIBC_2.2.5 getpeername
0000000000000000      DF *UND*	0000000000000000  GLIBC_2.2.5 getaddrinfo
0000000000000000      D  *UND*	0000000000000000              ceil
0000000000000000      DF *UND*	0000000000000000  GLIBC_2.2.5 gettimeofday
0000000000000000      DF *UND*	0000000000000000  CXXABI_1.3  __cxa_rethrow
0000000000000000      DF *UND*	0000000000000000  GLIBCXX_3.4 _ZNSt8ios_base4InitC1Ev
0000000000000000      DF *UND*	0000000000000000  GLIBC_2.2.5 malloc
0000000000000000      DF *UND*	0000000000000000  GLIBCXX_3.4 _ZSt18_Rb_tree_decrementPSt18_Rb_tree_node_base
0000000000000000      DF *UND*	0000000000000000  GLIBC_2.3.2 pthread_cond_timedwait
0000000000000000      DF *UND*	0000000000000000  GLIBCXX_3.4 _ZNSi5seekgESt4fposI11__mbstate_tE
0000000000000000      DF *UND*	0000000000000000  GLIBC_2.2.5 __cxa_atexit
0000000000000000      DF *UND*	0000000000000000  GLIBC_2.2.5 setsockopt
0000000000000000      DF *UND*	0000000000000000  GLIBCXX_3.4 _ZNSi4readEPcl
0000000000000000      DF *UND*	0000000000000000  GLIBC_2.2.5 pthread_mutex_init
0000000000000000      DF *UND*	0000000000000000  GLIBCXX_3.4 _ZNSt8ios_base4InitD1Ev
0000000000000000      DF *UND*	0000000000000000  GLIBCXX_3.4 _ZStlsISt11char_traitsIcEERSt13basic_ostreamIcT_ES5_PKc
0000000000000000      DF *UND*	0000000000000000  GLIBCXX_3.4 _ZNSo5writeEPKcl
0000000000000000      DF *UND*	0000000000000000  GLIBCXX_3.4 _ZNSsD1Ev
0000000000000000      DF *UND*	0000000000000000  GLIBC_2.2.5 freeaddrinfo
0000000000000000      DF *UND*	0000000000000000  GLIBC_2.2.5 free
0000000000000000      DF *UND*	0000000000000000  GLIBC_2.2.5 strlen
0000000000000000      DF *UND*	0000000000000000  GLIBC_2.2.5 pthread_create
0000000000000000      DF *UND*	0000000000000000  GLIBC_2.3.2 pthread_cond_init
0000000000000000  w   DF *UND*	0000000000000000  GLIBC_2.2.5 __cxa_finalize
0000000000000000      DF *UND*	0000000000000000  GLIBC_2.2.5 pthread_key_delete
0000000000000000      DO *UND*	0000000000000000  CXXABI_1.3  _ZTVN10__cxxabiv117__class_type_infoE
0000000000000000      DF *UND*	0000000000000000  GLIBC_2.2.5 sprintf
0000000000000000      DF *UND*	0000000000000000  GLIBC_2.2.5 ntohs
0000000000000000      DF *UND*	0000000000000000  GLIBCXX_3.4 _ZNSolsEm
0000000000000000      DF *UND*	0000000000000000  GLIBC_2.2.5 ntohl
0000000000000000      DF *UND*	0000000000000000  GLIBCXX_3.4 _ZSt18_Rb_tree_incrementPKSt18_Rb_tree_node_base
0000000000000000      DF *UND*	0000000000000000  GLIBC_2.2.5 sendmsg
0000000000000000      DF *UND*	0000000000000000  GLIBC_2.2.5 pthread_join
0000000000000000      DF *UND*	0000000000000000  GLIBC_2.2.5 pthread_mutex_trylock
0000000000000000      DF *UND*	0000000000000000  GLIBC_2.2.5 usleep
0000000000000000      DF *UND*	0000000000000000  GLIBC_2.2.5 strerror
0000000000000000      DO *UND*	0000000000000000  GLIBCXX_3.4 _ZSt4cout
0000000000000000      DF *UND*	0000000000000000  GLIBCXX_3.4 _ZSt9terminatev
0000000000000000      DF *UND*	0000000000000000  GLIBC_2.2.5 getsockopt
0000000000000000      DF *UND*	0000000000000000  GLIBC_2.2.5 getsockname
0000000000000000      DF *UND*	0000000000000000  GLIBCXX_3.4 _ZNKSt9basic_iosIcSt11char_traitsIcEE3eofEv
0000000000000000      DF *UND*	0000000000000000  CXXABI_1.3  __cxa_pure_virtual
0000000000000000      DF *UND*	0000000000000000  GLIBC_2.2.5 memcpy
0000000000000000      DF *UND*	0000000000000000  GLIBC_2.2.5 memmove
0000000000000000      DF *UND*	0000000000000000  GLIBC_2.2.5 socket
0000000000000000      DF *UND*	0000000000000000  GLIBCXX_3.4 _ZNKSt9basic_iosIcSt11char_traitsIcEE4failEv
0000000000000000      DF *UND*	0000000000000000  GLIBC_2.2.5 __errno_location
0000000000000000      DF *UND*	0000000000000000  GLIBCXX_3.4 _ZSt29_Rb_tree_insert_and_rebalancebPSt18_Rb_tree_node_baseS0_RS_
0000000000000000      DO *UND*	0000000000000000  CXXABI_1.3  _ZTVN10__cxxabiv120__si_class_type_infoE
0000000000000000      DF *UND*	0000000000000000  GLIBC_2.4   __stack_chk_fail
0000000000000000      DF *UND*	0000000000000000  GLIBC_2.2.5 getnameinfo
0000000000000000      DF *UND*	0000000000000000  GLIBCXX_3.4 _ZSt28_Rb_tree_rebalance_for_erasePSt18_Rb_tree_node_baseRS_
0000000000000000      DF *UND*	0000000000000000  CXXABI_1.3  __cxa_allocate_exception
0000000000000000      DF *UND*	0000000000000000  CXXABI_1.3  __cxa_free_exception
0000000000000000      DF *UND*	0000000000000000  GLIBC_2.2.5 nanosleep
0000000000000000      DF *UND*	0000000000000000  GLIBC_2.2.5 srand
0000000000000000      DF *UND*	0000000000000000  GLIBC_2.3.2 pthread_cond_wait
0000000000000000      DF *UND*	0000000000000000  GLIBCXX_3.4 _ZdaPv
0000000000000000      DF *UND*	0000000000000000  CXXABI_1.3.1 __cxa_get_exception_ptr
0000000000000000      DF *UND*	0000000000000000  CXXABI_1.3  __cxa_throw
0000000000000000      DF *UND*	0000000000000000  GLIBCXX_3.4 _ZSt18_Rb_tree_incrementPSt18_Rb_tree_node_base
0000000000000000      DF *UND*	0000000000000000  CXXABI_1.3  __cxa_end_catch
0000000000000000      DF *UND*	0000000000000000  GLIBCXX_3.4 _ZSt17__throw_bad_allocv
0000000000000000      D  *UND*	0000000000000000              pow
0000000000000000      DF *UND*	0000000000000000  GLIBCXX_3.4 _ZNKSt9basic_iosIcSt11char_traitsIcEE3badEv
0000000000000000      DF *UND*	0000000000000000  CXXABI_1.3  __cxa_begin_catch
0000000000000000      DF *UND*	0000000000000000  GLIBC_2.2.5 bind
0000000000000000      DF *UND*	0000000000000000  GLIBC_2.2.5 htonl
0000000000000000      DF *UND*	0000000000000000  GLIBC_2.2.5 pthread_mutex_lock
0000000000000000      DF *UND*	0000000000000000  GLIBC_2.2.5 rand
0000000000000000      DF *UND*	0000000000000000  GLIBC_2.2.5 pthread_key_create
0000000000000000      DF *UND*	0000000000000000  CXXABI_1.3  __gxx_personality_v0
0000000000000000      DF *UND*	0000000000000000  GLIBC_2.2.5 pthread_mutex_destroy
0000000000000000      DF *UND*	0000000000000000  GLIBCXX_3.4 _Znwm
0000000000000000      DF *UND*	0000000000000000  GCC_3.0     _Unwind_Resume
0000000000000000      DF *UND*	0000000000000000  GLIBC_2.3.2 pthread_cond_broadcast
0000000000000000      DF *UND*	0000000000000000  GLIBC_2.2.5 pthread_mutex_unlock
0000000000000000      DF *UND*	0000000000000000  GLIBCXX_3.4 _ZNSsaSERKSs
0000000000000000      D  *UND*	0000000000000000              log10
0000000000000000      DO *UND*	0000000000000000  GLIBCXX_3.4 _ZTISt9bad_alloc
000000000004589e  w   DF .text	0000000000000049  Base        _ZNSt12_Vector_baseIP10CUDTSocketSaIS1_EED2Ev
0000000000032b9a g    DF .text	0000000000000063  Base        _ZN4CMD57computeEPKcPh
0000000000046c32  w   DF .text	000000000000002b  Base        _ZSt13__copy_move_aILb0EP12CMultiplexerS1_ET1_T0_S3_S2_
000000000004b244 g    DF .text	0000000000000042  Base        _ZN14CPktTimeWindowD2Ev
000000000004928a g    DF .text	000000000000003a  Base        _ZN10CRcvBuffer12getRcvMsgNumEv
0000000000055e74  w   DF .text	000000000000001c  Base        _ZN9__gnu_cxx17__normal_iteratorIPKP4CUDTSt6vectorIS2_SaIS2_EEEC1ERKS4_
0000000000044f3e  w   DF .text	0000000000000023  Base        _ZNSt8_Rb_treeIiSt4pairIKiP10CUDTSocketESt10_Select1stIS4_ESt4lessIiESaIS4_EE6_S_keyEPKSt13_Rb_tree_nodeIS4_E
000000000004fcd4  w   DF .text	000000000000002e  Base        _ZNSt4pairISt23_Rb_tree_const_iteratorIP10CInfoBlockEbEC1ERKS3_RKb
0000000000048c08  w   DF .text	000000000000000e  Base        _ZN3CCC9onPktSentEPK7CPacket
0000000000053af8 g    DF .text	00000000000000b2  Base        _ZN9CRcvUList6insertEPK4CUDT
0000000000041b22 g    DF .text	0000000000000149  Base        _ZN10CUDTUnitedD1Ev
0000000000056afc  w   DF .text	0000000000000057  Base        _ZNSt8_Rb_treeIiSt4pairIKiP7CPacketESt10_Select1stIS4_ESt4lessIiESaIS4_EE14_M_create_nodeERKS4_
000000000004539b  w   DF .text	000000000000000e  Base        _ZNSt12__niter_baseIPP10CUDTSocketLb0EE3__bES2_
000000000003af78  w   DF .text	0000000000000206  Base        _ZNSt8_Rb_treeIiiSt9_IdentityIiESt4lessIiESaIiEE16_M_insert_uniqueERKi
0000000000044cc5  w   DF .text	0000000000000012  Base        _ZNSt8_Rb_treeIiiSt9_IdentityIiESt4lessIiESaIiEE7_S_leftEPKSt18_Rb_tree_node_base
0000000000038f5e g    DF .text	0000000000000125  Base        Java_com_barchart_udt_SocketUDT_bind0
00000000000552c2 g    DF .text	00000000000000ff  Base        _ZN9CSndQueueC2Ev
000000000004f096 g    DF .text	0000000000000067  Base        _ZN12CSndLossListD2Ev
00000000000565cf  w   DF .text	000000000000000e  Base        _ZNSt12__niter_baseIPP4CUDTLb0EE3__bES2_
00000000000516f0  w   DF .text	00000000000000c2  Base        _ZNSt8_Rb_treeIP10CInfoBlockS1_St9_IdentityIS1_E7CTSCompSaIS1_EE10_M_insert_EPKSt18_Rb_tree_node_baseS9_RKS1_
000000000005626c  w   DF .text	0000000000000014  Base        _ZNK9__gnu_cxx13new_allocatorIN16CRendezvousQueue3CRLEE8max_sizeEv
0000000000057b38  w   DF .text	0000000000000064  Base        _ZNSt20__copy_move_backwardILb0ELb1ESt26random_access_iterator_tagE13__copy_move_bIN16CRendezvousQueue3CRLEEEPT_PKS5_S8_S6_
000000000005353c g    DF .text	00000000000003c4  Base        _ZN10CUnitQueue4initERKiS1_S1_
000000000004d9b4 g    DF .text	0000000000000074  Base        _ZN12CRcvLossListD1Ev
0000000000058af8 g    DO .rodata	0000000000000004  Base        _ZN13CUDTException9EINVWROFFE
0000000000045998  w   DF .text	0000000000000051  Base        _ZN9__gnu_cxx13new_allocatorISt13_Rb_tree_nodeISt4pairIKiP10CUDTSocketEEE8allocateEmPKv
0000000000050972  w   DF .text	0000000000000012  Base        _ZNSt8_Rb_treeIP10CInfoBlockS1_St9_IdentityIS1_E7CTSCompSaIS1_EE7_M_rootEv
00000000000484fa g    DF .text	00000000000000ef  Base        _ZN6CUDTCC4initEv
0000000000058ad8 g    DO .rodata	0000000000000004  Base        _ZN13CUDTException9ECONNLOSTE
000000000003dbc9 g    DF .text	0000000000000038  Base        _ZN3UDT8recvfileEiRSt13basic_fstreamIcSt11char_traitsIcEElli
0000000000056600  w   DF .text	000000000000001f  Base        _ZNKSt6vectorIP4CUDTSaIS1_EE8max_sizeEv
0000000000045e2a  w   DF .text	0000000000000023  Base        _ZNSt3setIiSt4lessIiESaIiEEaSERKS3_
00000000000502be  w   DF .text	0000000000000078  Base        _ZNSt8_Rb_treeIP10CInfoBlockS1_St9_IdentityIS1_E7CTSCompSaIS1_EE14_M_upper_boundEPSt13_Rb_tree_nodeIS1_ES9_RKS1_
0000000000032528  w   DF .text	0000000000000029  Base        _ZN10CCCFactoryI6CUDTCCEC1Ev
000000000004459b  w   DF .text	0000000000000023  Base        _ZSt8_DestroyIP12CMultiplexerS0_EvT_S2_RSaIT0_E
0000000000033b92 g    DF .text	0000000000000016  Base        _ZNK7CPacket15getExtendedTypeEv
000000000004501a  w   DF .text	000000000000001f  Base        _ZNSt3mapIiP10CUDTSocketSt4lessIiESaISt4pairIKiS1_EEE11lower_boundERS5_
0000000000055fb4  w   DF .text	000000000000000a  Base        _ZN9__gnu_cxx13new_allocatorIN16CRendezvousQueue3CRLEED2Ev
00000000000442a8  w   DF .text	0000000000000036  Base        _ZN9__gnu_cxxneIPKiSt6vectorIiSaIiEEEEbRKNS_17__normal_iteratorIT_T0_EESB_
0000000000049bea g    DF .text	00000000000002c3  Base        _ZN10CSndBuffer8increaseEv
0000000000048abc g    DF .text	0000000000000070  Base        _ZN3CCC12setUserParamEPKcRKi
0000000000046cac  w   DF .text	0000000000000040  Base        _ZSt4copyIP12CMultiplexerS1_ET0_T_S3_S2_
000000000003f8c0 g    DF .text	00000000000001da  Base        _ZN4CUDT5closeEi
000000000003e1d0 g    DF .text	000000000000035b  Base        _ZN4CUDT7sendmsgEiPKciib
000000000003323e g    DF .text	0000000000000017  Base        _ZN6CGuard7leaveCSER15pthread_mutex_t
000000000003768d g    DF .text	00000000000000a2  Base        Java_com_barchart_udt_SocketUDT_listen0
00000000000575d5  w   DF .text	000000000000004f  Base        _ZSt14__copy_move_a2ILb0EPP4CUDTS2_ET1_T0_S4_S3_
0000000000039f76  w   DF .text	000000000000001f  Base        _ZNKSt6vectorIiSaIiEE8max_sizeEv
0000000000058b34 g    DO .rodata	0000000000000004  Base        _ZN13CUDTException10EASYNCFAILE
0000000000045920  w   DF .text	0000000000000028  Base        _ZNSt23_Rb_tree_const_iteratorISt4pairIKiP10CUDTSocketEEmmEv
0000000000269320 g    DO .bss	0000000000000028  Base        _ZN6CTimer11m_EventLockE
000000000003327c g    DF .text	0000000000000025  Base        _ZN6CGuardD2Ev
0000000000051b04 g    DF .text	000000000000000f  Base        _ZN10CUnitQueue6shrinkEv
0000000000055a28  w   DF .text	000000000000003d  Base        _ZNK9__gnu_cxx17__normal_iteratorIPN16CRendezvousQueue3CRLESt6vectorIS2_SaIS2_EEEplERKl
0000000000050ab4  w   DF .text	000000000000001f  Base        _ZN9__gnu_cxx13new_allocatorISt13_Rb_tree_nodeIP10CInfoBlockEE10deallocateEPS4_m
00000000000338c6 g    DF .text	000000000000000a  Base        _ZN7CPacketD1Ev
0000000000055bd9  w   DF .text	000000000000000e  Base        _ZSt8_DestroyIPN16CRendezvousQueue3CRLEEvT_S3_
0000000000047f8e g    DF .text	000000000000001b  Base        _ZN3CCC15setSndCurrSeqNoERKi
0000000000046ee3  w   DF .text	0000000000000065  Base        _ZNSt20__copy_move_backwardILb0ELb1ESt26random_access_iterator_tagE13__copy_move_bIP10CUDTSocketEEPT_PKS5_S8_S6_
000000000002767c g    DF .text	0000000000000024  Base        _ZN8CChannel4openEi
000000000002f168 g    DF .text	0000000000000344  Base        _ZN4CUDT5closeEv
0000000000055dc8  w   DF .text	0000000000000036  Base        _ZN9__gnu_cxxneIPP4CUDTSt6vectorIS2_SaIS2_EEEEbRKNS_17__normal_iteratorIT_T0_EESC_
000000000003a3d6  w   DF .text	000000000000010b  Base        _ZN7JNIEnv_9NewObjectEP7_jclassP10_jmethodIDz
00000000000441b0  w   DF .text	000000000000003d  Base        _ZN9__gnu_cxx13new_allocatorIP10CUDTSocketE9constructEPS2_RKS2_
0000000000050ed6  w   DF .text	00000000000000a0  Base        _ZNSt8_Rb_treeIP10CInfoBlockS1_St9_IdentityIS1_E7CTSCompSaIS1_EE5eraseESt17_Rb_tree_iteratorIS1_ES8_
0000000000039f0e  w   DF .text	0000000000000038  Base        _ZNKSt8_Rb_treeIiiSt9_IdentityIiESt4lessIiESaIiEE13get_allocatorEv
00000000000447e8  w   DF .text	0000000000000012  Base        _ZNSt8_Rb_treeIiSt4pairIKiP10CUDTSocketESt10_Select1stIS4_ESt4lessIiESaIS4_EE11_M_leftmostEv
000000000003734b g    DF .text	000000000000017e  Base        Java_com_barchart_udt_SocketUDT_send0
0000000000046c5d  w   DF .text	000000000000004f  Base        _ZSt14__copy_move_a2ILb0EP12CMultiplexerS1_ET1_T0_S3_S2_
000000000004fe5c  w   DF .text	0000000000000026  Base        _ZNKSt8_Rb_treeIP10CInfoBlockS1_St9_IdentityIS1_E7CTSCompSaIS1_EE3endEv
0000000000050d60  w   DF .text	0000000000000075  Base        _ZNSt8_Rb_treeIP10CInfoBlockS1_St9_IdentityIS1_E7CIPCompSaIS1_EE5clearEv
0000000000036216 g    DF .text	00000000000005f4  Base        Java_com_barchart_udt_SocketUDT_selectEx0
0000000000035d80 g    DF .text	0000000000000496  Base        Java_com_barchart_udt_SocketUDT_selectEx1
00000000000561b2  w   DF .text	0000000000000012  Base        _ZNSt8_Rb_treeIiSt4pairIKiP7CPacketESt10_Select1stIS4_ESt4lessIiESaIS4_EE8_S_rightEPKSt18_Rb_tree_node_base
00000000000390d4  w   DF .text	000000000000002f  Base        _ZN7JNIEnv_8ThrowNewEP7_jclassPKc
0000000000050952  w   DF .text	000000000000000e  Base        _ZNKSt8_Rb_treeIP10CInfoBlockS1_St9_IdentityIS1_E7CTSCompSaIS1_EE21_M_get_Node_allocatorEv
0000000000037e0a g    DF .text	0000000000000241  Base        Java_com_barchart_udt_SocketUDT_accept0
00000000000453aa  w   DF .text	000000000000000e  Base        _ZNKSt12_Vector_baseIP10CUDTSocketSaIS1_EE19_M_get_Tp_allocatorEv
00000000000394a2  w   DF .text	0000000000000038  Base        _ZN7JNIEnv_23ReleaseIntArrayElementsEP10_jintArrayPii
0000000000058558 g    DO .rodata	0000000000000004  Base        _ZN6CMsgNo10m_iMsgNoTHE
0000000000041c6c g    DF .text	0000000000000149  Base        _ZN10CUDTUnitedD2Ev
0000000000050b9e  w   DF .text	0000000000000075  Base        _ZNSt8_Rb_treeIP10CInfoBlockS1_St9_IdentityIS1_E7CTSCompSaIS1_EE5clearEv
000000000003a6d7  w   DF .text	0000000000000040  Base        _ZSt4copyIPiS0_ET0_T_S2_S1_
00000000000405fa g    DF .text	00000000000004ba  Base        _ZN10CUDTUnited6acceptEiP8sockaddrPi
00000000000446d2  w   DF .text	0000000000000017  Base        _ZNKSt3setIiSt4lessIiESaIiEE3endEv
0000000000052dc4 g    DF .text	0000000000000071  Base        _ZN5CHash4initERKi
0000000000044914  w   DF .text	0000000000000026  Base        _ZNSt8_Rb_treeIiiSt9_IdentityIiESt4lessIiESaIiEE3endEv
00000000000464bc  w   DF .text	0000000000000034  Base        _ZNSt3mapIiP10CUDTSocketSt4lessIiESaISt4pairIKiS1_EEE6insertESt17_Rb_tree_iteratorIS6_ERKS6_
0000000000269360 g    DO .bss	0000000000000030  Base        _ZN6CTimer11m_EventCondE
00000000000393ae  w   DF .text	0000000000000030  Base        _ZN7JNIEnv_21GetObjectArrayElementEP13_jobjectArrayi
000000000004da28 g    DF .text	0000000000000074  Base        _ZN12CRcvLossListD2Ev
0000000000058ad0 g    DO .rodata	0000000000000004  Base        _ZN13CUDTException8ESECFAILE
000000000003adf6  w   DF .text	0000000000000017  Base        _ZNSt3setIiSt4lessIiESaIiEED1Ev
0000000000045332  w   DF .text	000000000000003a  Base        _ZNSt12_Vector_baseIP10CUDTSocketSaIS1_EE12_Vector_implC1Ev
00000000000562a0  w   DF .text	000000000000000a  Base        _ZN9__gnu_cxx13new_allocatorIP4CUDTEC2Ev
0000000000042f4c g    DF .text	00000000000001b3  Base        _ZN10CUDTUnited14garbageCollectEPv
00000000000440fe  w   DF .text	0000000000000015  Base        _ZNKSt17_Rb_tree_iteratorISt4pairIKiP10CUDTSocketEEdeEv
0000000000055a66  w   DF .text	000000000000000a  Base        _ZN16CRendezvousQueue3CRLD1Ev
000000000005625e  w   DF .text	000000000000000e  Base        _ZNKSt12_Vector_baseIN16CRendezvousQueue3CRLESaIS1_EE19_M_get_Tp_allocatorEv
00000000000443b8  w   DF .text	000000000000004c  Base        _ZNK9__gnu_cxx17__normal_iteratorIP12CMultiplexerSt6vectorIS1_SaIS1_EEEplERKl
00000000000374c9 g    DF .text	00000000000001c4  Base        Java_com_barchart_udt_SocketUDT_receive0
000000000004b5da g    DF .text	0000000000000143  Base        _ZN14CPktTimeWindowC1Ev
00000000000322bb  w   DF .text	0000000000000061  Base        _ZN6CSeqNo6seqcmpERKiS1_
000000000003df7d g    DF .text	0000000000000038  Base        _ZN3UDT8sendfileEiRSt13basic_fstreamIcSt11char_traitsIcEElli
0000000000043bd8 g    DF .text	000000000000025c  Base        _ZN4CUDT6socketEiii
000000000005433c g    DF .text	0000000000000278  Base        _ZN9CRcvQueueD1Ev
00000000000332ba g    DF .text	000000000000003d  Base        _ZN6CGuardC1ER15pthread_mutex_t
0000000000052722 g    DF .text	0000000000000067  Base        _ZN9CSndUList6removeEPK4CUDT
0000000000058ac0 g    DO .rodata	0000000000000004  Base        _ZN13CUDTException10ECONNSETUPE
0000000000048c24  w   DF .text	000000000000000e  Base        _ZN3CCC16processCustomMsgEPK7CPacket
000000000003d724 g    DF .text	00000000000001fa  Base        _ZN4CUDT7perfmonEiP8CPerfMonb
00000000000447b1  w   DF .text	0000000000000017  Base        _ZNSt8_Rb_treeIiiSt9_IdentityIiESt4lessIiESaIiEE10_S_maximumEPSt18_Rb_tree_node_base
0000000000269140 g    D  *ABS*	0000000000000000  Base        _edata
000000000003976c  w   DF .text	0000000000000023  Base        _ZNKSt4lessIiEclERKiS2_
0000000000055c64  w   DF .text	0000000000000011  Base        _ZNK9__gnu_cxx17__normal_iteratorIPN16CRendezvousQueue3CRLESt6vectorIS2_SaIS2_EEEdeEv
00000000000338bc g    DF .text	000000000000000a  Base        _ZN7CPacketD2Ev
0000000000056025  w   DF .text	000000000000001a  Base        _ZNSt12__niter_baseIN9__gnu_cxx17__normal_iteratorIPN16CRendezvousQueue3CRLESt6vectorIS3_SaIS3_EEEELb1EE3__bES8_
0000000000056ca0  w   DF .text	0000000000000048  Base        _ZN9__gnu_cxx13new_allocatorIN16CRendezvousQueue3CRLEE8allocateEmPKv
0000000000058b30 g    DO .rodata	0000000000000004  Base        _ZN13CUDTException9ELARGEMSGE
0000000000051698  w   DF .text	0000000000000057  Base        _ZNSt8_Rb_treeIP10CInfoBlockS1_St9_IdentityIS1_E7CTSCompSaIS1_EE14_M_create_nodeERKS1_
00000000000398d5  w   DF .text	000000000000000e  Base        _ZSt8_DestroyIPiEvT_S1_
0000000000058b2c g    DO .rodata	0000000000000004  Base        _ZN13CUDTException10EDUPLISTENE
00000000000489d8 g    DF .text	000000000000004c  Base        _ZN3CCCD0Ev
00000000000327ca g    DF .text	000000000000002b  Base        _ZN13CUDTException5clearEv
0000000000026fd4 g    DF .text	00000000000001c5  Base        _ZNK8CChannel8recvfromEP8sockaddrR7CPacket
00000000000453eb  w   DF .text	000000000000000e  Base        _ZNSt12__niter_baseIP12CMultiplexerLb0EE3__bES1_
0000000000044e50  w   DF .text	000000000000000a  Base        _ZN9__gnu_cxx13new_allocatorISt4pairIKiP10CUDTSocketEED2Ev
0000000000032708  w   DF .text	0000000000000057  Base        _ZN10CCCFactoryI6CUDTCCE6createEv
0000000000022b60 g    DF .init	0000000000000000  Base        _init
000000000003fa9a g    DF .text	0000000000000015  Base        _ZN3UDT5closeEi
00000000000327a8 g    DF .text	0000000000000021  Base        _ZNK13CUDTException12getErrorCodeEv
0000000000043fee  w   DF .text	0000000000000022  Base        _ZNKSt17_Rb_tree_iteratorISt4pairIKiP10CUDTSocketEEneERKS5_
000000000004aa1a g    DF .text	000000000000004d  Base        _ZN14CPktTimeWindow9onPktSentERKi
00000000000368cd g    DF .text	00000000000005a3  Base        Java_com_barchart_udt_SocketUDT_select0
0000000000039c6b  w   DF .text	0000000000000023  Base        _ZNSt8_Rb_treeIiiSt9_IdentityIiESt4lessIiESaIiEE6_S_keyEPKSt13_Rb_tree_nodeIiE
0000000000036e70 g    DF .text	00000000000004db  Base        Java_com_barchart_udt_SocketUDT_updateMonitor0
000000000003241a  w   DF .text	000000000000002c  Base        _ZN6CSeqNo6incseqEi
0000000000039712  w   DF .text	0000000000000036  Base        _ZN9__gnu_cxxneIPiSt6vectorIiSaIiEEEEbRKNS_17__normal_iteratorIT_T0_EESA_
00000000000480c4 g    DF .text	00000000000000c0  Base        _ZN6CUDTCCC1Ev
0000000000266b50  w   DO .data.rel.ro	0000000000000018  Base        _ZTI10CCCFactoryI6CUDTCCE
0000000000045384  w   DF .text	0000000000000017  Base        _ZNSt6vectorIP10CUDTSocketSaIS1_EEC1Ev
0000000000051674  w   DF .text	0000000000000024  Base        _ZNSt8_Rb_treeIP10CInfoBlockS1_St9_IdentityIS1_E7CTSCompSaIS1_EE11_M_get_nodeEv
00000000000561a0  w   DF .text	0000000000000012  Base        _ZNSt8_Rb_treeIiSt4pairIKiP7CPacketESt10_Select1stIS4_ESt4lessIiESaIS4_EE11_M_leftmostEv
00000000000492c4 g    DF .text	00000000000001be  Base        _ZN10CRcvBuffer16readBufferToFileERSt13basic_fstreamIcSt11char_traitsIcEERKi
0000000000044e2a  w   DF .text	0000000000000017  Base        _ZNSt3mapIiP10CUDTSocketSt4lessIiESaISt4pairIKiS1_EEEC1Ev
0000000000050628  w   DF .text	00000000000001c0  Base        _ZNSt8_Rb_treeIP10CInfoBlockS1_St9_IdentityIS1_E7CIPCompSaIS1_EE11equal_rangeERKS1_
0000000000044e7c  w   DF .text	0000000000000017  Base        _ZNSaI12CMultiplexerEC2Ev
0000000000055900  w   DF .text	0000000000000023  Base        _ZNSt6vectorIN16CRendezvousQueue3CRLESaIS1_EE3endEv
0000000000055be7  w   DF .text	0000000000000023  Base        _ZSt8_DestroyIPN16CRendezvousQueue3CRLES1_EvT_S3_RSaIT0_E
00000000000338d0 g    DF .text	0000000000000012  Base        _ZNK7CPacket9getLengthEv
000000000002e3fe g    DF .text	00000000000006ff  Base        _ZN4CUDT4sendEPKcRKi
0000000000032bfe g    DF .text	00000000000004ab  Base        _ZN13CUDTException15getErrorMessageEv
000000000004531a  w   DF .text	0000000000000017  Base        _ZNSaIP10CUDTSocketEC2Ev
000000000003ed08 g    DF .text	0000000000000237  Base        _ZN4CUDT10getsockoptEii6UDTOptPvPi
000000000003c27e g    DF .text	0000000000000420  Base        _ZN4CUDT8selectExERKSt6vectorIiSaIiEEPS2_S5_S5_l
000000000004b48a g    DF .text	000000000000014f  Base        _ZN14CPktTimeWindowC2ERKiS1_
0000000000052510 g    DF .text	0000000000000109  Base        _ZN9CRcvQueue8storePktERKiP7CPacket
000000000003abb2  w   DF .text	000000000000006e  Base        _ZNSt6vectorIiSaIiEE9push_backERKi
000000000005696a  w   DF .text	0000000000000017  Base        _ZNSt3mapIiP7CPacketSt4lessIiESaISt4pairIKiS1_EEED1Ev
00000000000563da  w   DF .text	000000000000000e  Base        _ZNKSt8_Rb_treeIiSt4pairIKiP7CPacketESt10_Select1stIS4_ESt4lessIiESaIS4_EE21_M_get_Node_allocatorEv
00000000000455e2  w   DF .text	0000000000000075  Base        _ZNSt8_Rb_treeIiSt4pairIKiP10CUDTSocketESt10_Select1stIS4_ESt4lessIiESaIS4_EE5clearEv
0000000000049f4c g    DF .text	0000000000000189  Base        _ZN10CSndBuffer8readDataEPPciRiS2_
00000000000397b4  w   DF .text	0000000000000019  Base        _ZNSt17_Rb_tree_iteratorIiEC1EPSt13_Rb_tree_nodeIiE
000000000002dc62 g    DF .text	000000000000079c  Base        _ZN4CUDT7sendmsgEPKcRKiS3_RKb
000000000004536c  w   DF .text	0000000000000017  Base        _ZNSt12_Vector_baseIP10CUDTSocketSaIS1_EEC2Ev
0000000000058af4 g    DO .rodata	0000000000000004  Base        _ZN13CUDTException7ERDPERME
000000000002c912 g    DF .text	0000000000000646  Base        _ZN4CUDT8recvfileERSt13basic_fstreamIcSt11char_traitsIcEERKlS6_RKi
000000000003c69e g    DF .text	000000000000003a  Base        _ZN3UDT8selectExERKSt6vectorIiSaIiEEPS2_S5_S5_l
0000000000048254 g    DF .text	00000000000002a5  Base        _ZN6CUDTCC6onLossEPKiRS0_
0000000000058ac4 g    DO .rodata	0000000000000004  Base        _ZN13CUDTException9ENOSERVERE
00000000000392ac  w   DF .text	0000000000000038  Base        _ZN7JNIEnv_11SetIntFieldEP8_jobjectP9_jfieldIDi
000000000004b71e g    DF .text	0000000000000143  Base        _ZN14CPktTimeWindowC2Ev
0000000000266d00  w   DO .data.rel.ro	0000000000000010  Base        _ZTI3CCC
0000000000044886  w   DF .text	000000000000000a  Base        _ZN9__gnu_cxx13new_allocatorI12CMultiplexerED2Ev
00000000000574e9  w   DF .text	0000000000000040  Base        _ZSt4copyIN9__gnu_cxx17__normal_iteratorIPP4CUDTSt6vectorIS3_SaIS3_EEEES8_ET0_T_SA_S9_
00000000000545b4 g    DF .text	0000000000000278  Base        _ZN9CRcvQueueD2Ev
000000000003bb5c g    DF .text	000000000000009f  Base        _ZN10CUDTUnited8getErrorEv
0000000000039704  w   DF .text	000000000000000e  Base        _ZNK9__gnu_cxx17__normal_iteratorIPiSt6vectorIiSaIiEEE4baseEv
0000000000056ce8  w   DF .text	0000000000000040  Base        _ZNSt12_Vector_baseIN16CRendezvousQueue3CRLESaIS1_EE11_M_allocateEm
000000000003b290 g    DF .text	000000000000009a  Base        _ZN10CUDTUnited9getStatusEi
0000000000058554 g    DO .rodata	0000000000000004  Base        _ZN6CAckNo14m_iMaxAckSeqNoE
0000000000041db6 g    DF .text	000000000000031a  Base        _ZN10CUDTUnitedC1Ev
0000000000048184 g    DF .text	00000000000000cf  Base        _ZN6CUDTCC9onTimeoutEv
0000000000032477  w   DF .text	000000000000005f  Base        _ZN6CSeqNo6incseqERKiS1_
0000000000039696  w   DF .text	000000000000001c  Base        _ZN9__gnu_cxx17__normal_iteratorIPiSt6vectorIiSaIiEEEC1ERKS1_
000000000005057a  w   DF .text	0000000000000012  Base        _ZNSt8_Rb_treeIP10CInfoBlockS1_St9_IdentityIS1_E7CTSCompSaIS1_EE8_S_valueEPKSt18_Rb_tree_node_base
000000000004ffbe  w   DF .text	0000000000000041  Base        _ZNSt8_Rb_treeIP10CInfoBlockS1_St9_IdentityIS1_E7CIPCompSaIS1_EE13_Rb_tree_implIS4_Lb1EE13_M_initializeEv
00000000000585d0  w   DO .rodata	0000000000000014  Base        _ZTS17CCCVirtualFactory
00000000000398a6  w   DF .text	0000000000000017  Base        _ZNSaISt13_Rb_tree_nodeIiEED2Ev
0000000000049b6a g    DF .text	0000000000000080  Base        _ZN10CRcvBufferC2EP10CUnitQueue
000000000003dc02 g    DF .text	000000000000037b  Base        _ZN4CUDT8sendfileEiRSt13basic_fstreamIcSt11char_traitsIcEERKlS6_RKi
000000000004fd14  w   DF .text	0000000000000017  Base        _ZNKSt3setIP10CInfoBlock7CTSCompSaIS1_EE4sizeEv
0000000000048dea g    DF .text	0000000000000054  Base        _ZNK10CRcvBuffer14getRcvDataSizeEv
0000000000048a24 g    DF .text	000000000000004c  Base        _ZN3CCCD1Ev
00000000000423ea g    DF .text	00000000000000dc  Base        _ZN10CUDTSocketD1Ev
0000000000056d28  w   DF .text	0000000000000028  Base        _ZNSt17_Rb_tree_iteratorISt4pairIKiP7CPacketEEmmEv
0000000000055fbe  w   DF .text	0000000000000017  Base        _ZNSaIN16CRendezvousQueue3CRLEED2Ev
000000000003c014 g    DF .text	000000000000026a  Base        _ZN10CUDTUnited8selectExERKSt6vectorIiSaIiEEPS2_S5_S5_l
0000000000055cb4  w   DF .text	000000000000000a  Base        _ZN9__gnu_cxx13new_allocatorISt13_Rb_tree_nodeISt4pairIKiP7CPacketEEED2Ev
0000000000057664  w   DF .text	0000000000000027  Base        _ZNSt20__uninitialized_copyILb1EE18uninitialized_copyIPP4CUDTS4_EET0_T_S6_S5_
0000000000056f56  w   DF .text	00000000000003b6  Base        _ZNSt8_Rb_treeIiSt4pairIKiP7CPacketESt10_Select1stIS4_ESt4lessIiESaIS4_EE17_M_insert_unique_ESt23_Rb_tree_const_iteratorIS4_ERKS4_
000000000004541c  w   DF .text	000000000000001f  Base        _ZNKSt6vectorI12CMultiplexerSaIS0_EE8max_sizeEv
0000000000032446  w   DF .text	0000000000000031  Base        _ZN6CSeqNo6decseqERKi
0000000000044052  w   DF .text	0000000000000011  Base        _ZNK9__gnu_cxx17__normal_iteratorIPP10CUDTSocketSt6vectorIS2_SaIS2_EEEdeEv
000000000005266c g    DF .text	0000000000000061  Base        _ZN9CRcvQueue11setListenerEPK4CUDT
0000000000055c75  w   DF .text	000000000000000e  Base        _ZNSt12__miter_baseIN9__gnu_cxx17__normal_iteratorIPN16CRendezvousQueue3CRLESt6vectorIS3_SaIS3_EEEELb0EE3__bES8_
000000000004a484 g    DF .text	00000000000000b1  Base        _ZN10CSndBufferD1Ev
0000000000044a4a  w   DF .text	00000000000001a5  Base        _ZNSt8_Rb_treeIiiSt9_IdentityIiESt4lessIiESaIiEE11equal_rangeERKi
000000000005607a  w   DF .text	0000000000000041  Base        _ZNSt8_Rb_treeIiSt4pairIKiP7CPacketESt10_Select1stIS4_ESt4lessIiESaIS4_EE13_Rb_tree_implIS8_Lb0EE13_M_initializeEv
0000000000035c1b g    DF .text	00000000000000a7  Base        X_NewInteger
00000000000561c4  w   DF .text	000000000000000a  Base        _ZN9__gnu_cxx13new_allocatorIN16CRendezvousQueue3CRLEEC2Ev
00000000000558e0  w   DF .text	000000000000001f  Base        _ZNSt6vectorIN16CRendezvousQueue3CRLESaIS1_EE5beginEv
0000000000048004 g    DF .text	00000000000000c0  Base        _ZN6CUDTCCC2Ev
0000000000047a48  w   DF .text	0000000000000068  Base        _ZNSt8_Rb_treeIiSt4pairIKiP10CUDTSocketESt10_Select1stIS4_ESt4lessIiESaIS4_EE5eraseERS1_
000000000004fe1e  w   DF .text	0000000000000026  Base        _ZNKSt8_Rb_treeIP10CInfoBlockS1_St9_IdentityIS1_E7CTSCompSaIS1_EE5beginEv
000000000002b01a g    DF .text	0000000000000223  Base        _ZN4CUDTC2ERKS_
0000000000054054 g    DF .text	00000000000000a5  Base        _ZN16CRendezvousQueueD1Ev
0000000000057bc7  w   DF .text	000000000000004f  Base        _ZSt23__copy_move_backward_a2ILb0EPN16CRendezvousQueue3CRLES2_ET1_T0_S4_S3_
0000000000048bec  w   DF .text	0000000000000012  Base        _ZN3CCC6onLossEPKiRS0_
0000000000034320 g    DF .text	000000000000000e  Base        Java_com_barchart_udt_SocketUDT_testEmptyCall0
0000000000050e40  w   DF .text	0000000000000017  Base        _ZNSt3setIP10CInfoBlock7CIPCompSaIS1_EED1Ev
0000000000035714 g    DF .text	000000000000017b  Base        UDT_ThrowExceptionUDT_Message
0000000000044764  w   DF .text	0000000000000012  Base        _ZNKSt8_Rb_treeIiiSt9_IdentityIiESt4lessIiESaIiEE7_M_rootEv
000000000003382a g    DF .text	0000000000000092  Base        _ZN7CPacketC1Ev
00000000000450f4  w   DF .text	0000000000000075  Base        _ZNSt8_Rb_treeIiSt4pairIKiP10CUDTSocketESt10_Select1stIS4_ESt4lessIiESaIS4_EE14_M_upper_boundEPSt13_Rb_tree_nodeIS4_ESD_RS1_
0000000000047faa g    DF .text	000000000000001b  Base        _ZN3CCC10setRcvRateERKi
0000000000055d2c  w   DF .text	0000000000000026  Base        _ZNSt8_Rb_treeIiSt4pairIKiP7CPacketESt10_Select1stIS4_ESt4lessIiESaIS4_EE3endEv
000000000005624f  w   DF .text	000000000000000e  Base        _ZNSt12__niter_baseIPN16CRendezvousQueue3CRLELb0EE3__bES2_
000000000004fdc6  w   DF .text	0000000000000019  Base        _ZNSt23_Rb_tree_const_iteratorIP10CInfoBlockEC1EPKSt13_Rb_tree_nodeIS1_E
00000000000500b4  w   DF .text	0000000000000026  Base        _ZNSt8_Rb_treeIP10CInfoBlockS1_St9_IdentityIS1_E7CTSCompSaIS1_EE3endEv
0000000000058adc g    DO .rodata	0000000000000004  Base        _ZN13CUDTException7ENOCONNE
000000000004fd02  w   DF .text	0000000000000012  Base        _ZNKSt8_Rb_treeIP10CInfoBlockS1_St9_IdentityIS1_E7CTSCompSaIS1_EE4sizeEv
00000000000558b6  w   DF .text	000000000000000e  Base        _ZNSt12_Vector_baseIN16CRendezvousQueue3CRLESaIS1_EE19_M_get_Tp_allocatorEv
0000000000032760 g    DF .text	0000000000000037  Base        _ZN6CTimer5rdtscERm
00000000000396f5  w   DF .text	000000000000000e  Base        _ZSt19__iterator_categoryIN9__gnu_cxx17__normal_iteratorIPiSt6vectorIiSaIiEEEEENSt15iterator_traitsIT_E17iterator_categoryERKS8_
00000000000470d9  w   DF .text	0000000000000040  Base        _ZSt4copyIPP10CUDTSocketS2_ET0_T_S4_S3_
00000000000274d8 g    DF .text	000000000000001a  Base        _ZNK8CChannel5closeEv
0000000000033558 g    DF .text	000000000000006e  Base        _ZN6CTimer16readCPUFrequencyEv
0000000000052f6a g    DF .text	000000000000046d  Base        _ZN10CUnitQueue8increaseEv
000000000004dbf8 g    DF .text	000000000000015b  Base        _ZN12CRcvLossListC2ERKi
000000000003680a g    DF .text	0000000000000063  Base        UDT_CopySetToArray
0000000000045a0e  w   DF .text	0000000000000057  Base        _ZNSt8_Rb_treeIiSt4pairIKiP10CUDTSocketESt10_Select1stIS4_ESt4lessIiESaIS4_EE14_M_create_nodeERKS4_
0000000000048bd4  w   DF .text	000000000000000a  Base        _ZN3CCC5closeEv
0000000000058ae0 g    DO .rodata	0000000000000004  Base        _ZN13CUDTException9ERESOURCEE
0000000000058544 g    DO .rodata	0000000000000004  Base        _ZN3UDT12INVALID_SOCKE
00000000000454f8  w   DF .text	000000000000001f  Base        _ZN9__gnu_cxx13new_allocatorISt13_Rb_tree_nodeISt4pairIKiP10CUDTSocketEEE10deallocateEPS7_m
00000000000440f0  w   DF .text	000000000000000e  Base        _ZNSt12_Vector_baseI12CMultiplexerSaIS0_EE19_M_get_Tp_allocatorEv
0000000000043fd8  w   DF .text	0000000000000015  Base        _ZNKSt17_Rb_tree_iteratorISt4pairIKiP10CUDTSocketEEptEv
0000000000047167  w   DF .text	000000000000002b  Base        _ZSt22__uninitialized_copy_aIPP10CUDTSocketS2_S1_ET0_T_S4_S3_RSaIT1_E
0000000000051152  w   DF .text	0000000000000068  Base        _ZNSt8_Rb_treeIP10CInfoBlockS1_St9_IdentityIS1_E7CIPCompSaIS1_EE5eraseERKS1_
0000000000055c91  w   DF .text	0000000000000023  Base        _ZSt8_DestroyIPP4CUDTS1_EvT_S3_RSaIT0_E
000000000004fece  w   DF .text	0000000000000012  Base        _ZNKSt9_IdentityIP10CInfoBlockEclERKS1_
000000000005641b  w   DF .text	0000000000000023  Base        _ZNSt8_Rb_treeIiSt4pairIKiP7CPacketESt10_Select1stIS4_ESt4lessIiESaIS4_EE6_S_keyEPKSt13_Rb_tree_nodeIS4_E
00000000000420d0 g    DF .text	000000000000031a  Base        _ZN10CUDTUnitedC2Ev
0000000000055ffc  w   DF .text	0000000000000029  Base        _ZNKSt6vectorIN16CRendezvousQueue3CRLESaIS1_EE4sizeEv
0000000000041b16 g    DF .text	000000000000000b  Base        _ZN3UDT7startupEv
0000000000055e3e  w   DF .text	0000000000000036  Base        _ZN9__gnu_cxxeqIPP4CUDTSt6vectorIS2_SaIS2_EEEEbRKNS_17__normal_iteratorIT_T0_EESC_
00000000000503ba  w   DF .text	00000000000001c0  Base        _ZNSt8_Rb_treeIP10CInfoBlockS1_St9_IdentityIS1_E7CTSCompSaIS1_EE11equal_rangeERKS1_
000000000004d668 g    DF .text	00000000000000b8  Base        _ZN12CRcvLossList6removeERKiS1_
00000000000509f8  w   DF .text	0000000000000012  Base        _ZNSt8_Rb_treeIP10CInfoBlockS1_St9_IdentityIS1_E7CIPCompSaIS1_EE12_M_rightmostEv
0000000000048e6c g    DF .text	00000000000000c7  Base        _ZN10CRcvBuffer7dropMsgERKi
0000000000048a70 g    DF .text	000000000000004c  Base        _ZN3CCCD2Ev
0000000000039e40  w   DF .text	0000000000000017  Base        _ZNSt3setIiSt4lessIiESaIiEEC1Ev
0000000000043e56 g    DF .text	00000000000000dc  Base        _ZN10CUDTSocketD2Ev
0000000000039384  w   DF .text	000000000000002a  Base        _ZN7JNIEnv_14GetArrayLengthEP7_jarray
0000000000055838  w   DF .text	0000000000000011  Base        _ZNK9__gnu_cxx17__normal_iteratorIPN16CRendezvousQueue3CRLESt6vectorIS2_SaIS2_EEEptEv
0000000000055f6e  w   DF .text	000000000000000e  Base        _ZNKSt8_Rb_treeIiSt4pairIKiP7CPacketESt10_Select1stIS4_ESt4lessIiESaIS4_EE8key_compEv
00000000000453fa  w   DF .text	000000000000000e  Base        _ZNKSt12_Vector_baseI12CMultiplexerSaIS0_EE19_M_get_Tp_allocatorEv
000000000004453a  w   DF .text	0000000000000017  Base        _ZNSaISt13_Rb_tree_nodeISt4pairIKiP10CUDTSocketEEED2Ev
0000000000046964  w   DF .text	000000000000003c  Base        _ZNSt3setIiSt4lessIiESaIiEE6insertESt23_Rb_tree_const_iteratorIiERKi
000000000004f3a0 g    DF .text	00000000000000b1  Base        _ZNK7CIPCompclEPK10CInfoBlockS2_
000000000003ae0e  w   DF .text	0000000000000057  Base        _ZNSt8_Rb_treeIiiSt9_IdentityIiESt4lessIiESaIiEE14_M_create_nodeERKi
000000000004a536 g    DF .text	00000000000000b1  Base        _ZN10CSndBufferD2Ev
000000000004fd7d  w   DF .text	0000000000000012  Base        _ZNSt8_Rb_treeIP10CInfoBlockS1_St9_IdentityIS1_E7CIPCompSaIS1_EE8_S_rightEPSt18_Rb_tree_node_base
00000000000540fa g    DF .text	00000000000000a5  Base        _ZN16CRendezvousQueueD2Ev
00000000000479a8  w   DF .text	00000000000000a0  Base        _ZNSt8_Rb_treeIiSt4pairIKiP10CUDTSocketESt10_Select1stIS4_ESt4lessIiESaIS4_EE5eraseESt17_Rb_tree_iteratorIS4_ESC_
0000000000054d92 g    DF .text	0000000000000218  Base        _ZN9CRcvQueueC1Ev
0000000000052a7a g    DF .text	000000000000034a  Base        _ZN9CRcvQueue8recvfromERKiR7CPacket
00000000000567ba  w   DF .text	0000000000000052  Base        _ZNSt8_Rb_treeIiSt4pairIKiP7CPacketESt10_Select1stIS4_ESt4lessIiESaIS4_EE8_M_eraseEPSt13_Rb_tree_nodeIS4_E
0000000000051e9c g    DF .text	000000000000007f  Base        _ZN5CHash6lookupERKi
00000000000565de  w   DF .text	000000000000000e  Base        _ZNKSt12_Vector_baseIP4CUDTSaIS1_EE19_M_get_Tp_allocatorEv
00000000000398e3  w   DF .text	0000000000000023  Base        _ZSt8_DestroyIPiiEvT_S1_RSaIT0_E
0000000000058b1c g    DO .rodata	0000000000000004  Base        _ZN13CUDTException10ERDVNOSERVE
000000000005004f  w   DF .text	0000000000000012  Base        _ZNSt8_Rb_treeIP10CInfoBlockS1_St9_IdentityIS1_E7CIPCompSaIS1_EE8_S_valueEPKSt18_Rb_tree_node_base
000000000004ff20  w   DF .text	0000000000000026  Base        _ZNSt8_Rb_treeIP10CInfoBlockS1_St9_IdentityIS1_E7CIPCompSaIS1_EE5beginEv
0000000000055526 g    DF .text	0000000000000200  Base        _ZN9CSndQueue6workerEPv
0000000000056982  w   DF .text	0000000000000049  Base        _ZNSt12_Vector_baseIP4CUDTSaIS1_EED2Ev
00000000000585b0  w   DO .rodata	0000000000000016  Base        _ZTS10CCCFactoryI6CUDTCCE
0000000000033798 g    DF .text	0000000000000092  Base        _ZN7CPacketC2Ev
00000000000558c4  w   DF .text	000000000000001c  Base        _ZN9__gnu_cxx17__normal_iteratorIPN16CRendezvousQueue3CRLESt6vectorIS2_SaIS2_EEEC1ERKS3_
0000000000043e34 g    DF .text	0000000000000021  Base        _ZN3UDT6socketEiii
000000000005730c  w   DF .text	0000000000000034  Base        _ZNSt3mapIiP7CPacketSt4lessIiESaISt4pairIKiS1_EEE6insertESt17_Rb_tree_iteratorIS6_ERKS6_
00000000000445cc  w   DF .text	000000000000001b  Base        _ZNKSt3mapIiP10CUDTSocketSt4lessIiESaISt4pairIKiS1_EEE8key_compEv
000000000004543c  w   DF .text	000000000000000a  Base        _ZN9__gnu_cxx13new_allocatorISt4pairIKiP10CUDTSocketEEC2Ev
00000000000459ea  w   DF .text	0000000000000024  Base        _ZNSt8_Rb_treeIiSt4pairIKiP10CUDTSocketESt10_Select1stIS4_ESt4lessIiESaIS4_EE11_M_get_nodeEv
0000000000056550  w   DF .text	000000000000001f  Base        _ZNSt3mapIiP7CPacketSt4lessIiESaISt4pairIKiS1_EEE4findERS5_
00000000000457d6  w   DF .text	0000000000000075  Base        _ZNSt8_Rb_treeIiiSt9_IdentityIiESt4lessIiESaIiEE5clearEv
000000000004ff86  w   DF .text	0000000000000026  Base        _ZNSt8_Rb_treeIP10CInfoBlockS1_St9_IdentityIS1_E7CTSCompSaIS1_EE5beginEv
0000000000039586  w   DF .text	0000000000000029  Base        _ZNKSt6vectorIiSaIiEE4sizeEv
0000000000039d14  w   DF .text	000000000000000a  Base        _ZN9__gnu_cxx13new_allocatorIiED2Ev
0000000000032b3e g    DF .text	000000000000005b  Base        _ZN13CUDTExceptionC2ERKS_
0000000000055b96  w   DF .text	0000000000000015  Base        _ZNKSt17_Rb_tree_iteratorISt4pairIKiP7CPacketEEdeEv
00000000000447d6  w   DF .text	0000000000000011  Base        _ZNK9__gnu_cxx17__normal_iteratorIP12CMultiplexerSt6vectorIS1_SaIS1_EEEdeEv
000000000004549a  w   DF .text	0000000000000049  Base        _ZN9__gnu_cxx13new_allocatorISt4pairIKiP10CUDTSocketEE9constructEPS5_RKS5_
000000000003ea74 g    DF .text	0000000000000029  Base        _ZN3UDT4sendEiPKcii
00000000000576b2  w   DF .text	000000000000002b  Base        _ZSt22__uninitialized_copy_aIPP4CUDTS2_S1_ET0_T_S4_S3_RSaIT1_E
0000000000033b52 g    DF .text	0000000000000012  Base        _ZN7CPacket15getPacketVectorEv
000000000004fde0  w   DF .text	0000000000000026  Base        _ZNKSt8_Rb_treeIP10CInfoBlockS1_St9_IdentityIS1_E7CIPCompSaIS1_EE3endEv
0000000000049862 g    DF .text	000000000000008a  Base        _ZN10CRcvBufferD1Ev
000000000003951c  w   DF .text	0000000000000042  Base        _ZN7JNIEnv_17SetIntArrayRegionEP10_jintArrayiiPKi
0000000000044552  w   DF .text	0000000000000017  Base        _ZNSt8_Rb_treeIiSt4pairIKiP10CUDTSocketESt10_Select1stIS4_ESt4lessIiESaIS4_EE13_Rb_tree_implIS8_Lb0EED1Ev
000000000002eafe g    DF .text	000000000000066a  Base        _ZN4CUDT4recvEPcRKi
0000000000057fde  w   DF .text	00000000000000b8  Base        _ZNKSt6vectorIN16CRendezvousQueue3CRLESaIS1_EE12_M_check_lenEmPKc
0000000000046106  w   DF .text	00000000000003b6  Base        _ZNSt8_Rb_treeIiSt4pairIKiP10CUDTSocketESt10_Select1stIS4_ESt4lessIiESaIS4_EE17_M_insert_unique_ESt23_Rb_tree_const_iteratorIS4_ERKS4_
00000000000447fa  w   DF .text	0000000000000012  Base        _ZNSt8_Rb_treeIiSt4pairIKiP10CUDTSocketESt10_Select1stIS4_ESt4lessIiESaIS4_EE7_M_rootEv
0000000000055f5f  w   DF .text	000000000000000e  Base        _ZNSt12__miter_baseIN9__gnu_cxx17__normal_iteratorIPP4CUDTSt6vectorIS3_SaIS3_EEEELb0EE3__bES8_
0000000000039998  w   DF .text	0000000000000036  Base        _ZN9__gnu_cxxeqIPKiSt6vectorIiSaIiEEEEbRKNS_17__normal_iteratorIT_T0_EESB_
0000000000044114  w   DF .text	000000000000002d  Base        _ZNSt4pairIKiP10CUDTSocketEC1ERS0_RKS2_
000000000004cf4a g    DF .text	000000000000071e  Base        _ZN12CRcvLossList6removeERKi
0000000000050930  w   DF .text	000000000000000a  Base        _ZN9__gnu_cxx13new_allocatorIP10CInfoBlockED2Ev
0000000000046a34  w   DF .text	00000000000000a5  Base        _ZNSt20__copy_move_backwardILb0ELb1ESt26random_access_iterator_tagE13__copy_move_bI12CMultiplexerEEPT_PKS4_S7_S5_
00000000000563c2  w   DF .text	0000000000000017  Base        _ZNSt3mapIiP7CPacketSt4lessIiESaISt4pairIKiS1_EEEC1Ev
0000000000050e58  w   DF .text	0000000000000036  Base        _ZNSt17_Rb_tree_iteratorIP10CInfoBlockEppEi
00000000000387d6 g    DF .text	00000000000000ed  Base        Java_com_barchart_udt_SocketUDT_hasLoadedRemoteSocketAddress
000000000005752a  w   DF .text	00000000000000ab  Base        _ZNSt6vectorIP4CUDTSaIS1_EE5eraseEN9__gnu_cxx17__normal_iteratorIPS1_S3_EE
000000000003a978  w   DF .text	000000000000001f  Base        _ZN9__gnu_cxx13new_allocatorIiE10deallocateEPim
0000000000044d32  w   DF .text	000000000000001a  Base        _ZNSt12__niter_baseIN9__gnu_cxx17__normal_iteratorIP12CMultiplexerSt6vectorIS2_SaIS2_EEEELb1EE3__bES7_
000000000003810f g    DF .text	000000000000008b  Base        Java_com_barchart_udt_SocketUDT_stopClass0
000000000004440e  w   DF .text	000000000000001b  Base        _ZN9__gnu_cxx13new_allocatorI12CMultiplexerE7destroyEPS1_
000000000003ea9e g    DF .text	0000000000000237  Base        _ZN4CUDT10setsockoptEii6UDTOptPKvi
00000000000566f6  w   DF .text	0000000000000014  Base        _ZNK9__gnu_cxx13new_allocatorISt13_Rb_tree_nodeISt4pairIKiP7CPacketEEE8max_sizeEv
00000000000453b8  w   DF .text	0000000000000014  Base        _ZNK9__gnu_cxx13new_allocatorIP10CUDTSocketE8max_sizeEv
0000000000050922  w   DF .text	000000000000000e  Base        _ZNKSt8_Rb_treeIP10CInfoBlockS1_St9_IdentityIS1_E7CIPCompSaIS1_EE21_M_get_Node_allocatorEv
00000000000453cc  w   DF .text	000000000000001f  Base        _ZNKSt6vectorIP10CUDTSocketSaIS1_EE8max_sizeEv
000000000003350a g    DF .text	0000000000000012  Base        _ZN6CTimer12triggerEventEv
0000000000044d4c  w   DF .text	000000000000000e  Base        _ZNSt12__miter_baseIP12CMultiplexerLb0EE3__bES1_
0000000000058560 g    DO .rodata	0000000000000004  Base        _ZN4CUDT10m_iVersionE
0000000000044e72  w   DF .text	000000000000000a  Base        _ZN9__gnu_cxx13new_allocatorI12CMultiplexerEC2Ev
0000000000054faa g    DF .text	0000000000000218  Base        _ZN9CRcvQueueC2Ev
000000000003351c g    DF .text	000000000000001b  Base        _ZN6CTimer4tickEv
0000000000040c42 g    DF .text	0000000000000025  Base        _ZN3UDT6acceptEiP8sockaddrPi
000000000003849f g    DF .text	000000000000024a  Base        X_NewInetSocketAddress
000000000003d6e8 g    DF .text	000000000000003b  Base        _ZN4CUDT12getUDTHandleEi
0000000000035194 g    DF .text	000000000000005c  Base        Java_com_barchart_udt_SocketUDT_getErrorMessage0
0000000000027a1e g    DF .text	0000000000000393  Base        _ZN4CUDT6listenEP8sockaddrR7CPacket
0000000000057887  w   DF .text	000000000000002b  Base        _ZSt13__copy_move_aILb0EPN16CRendezvousQueue3CRLES2_ET1_T0_S4_S3_
000000000003a8c2  w   DF .text	0000000000000040  Base        _ZNSt12_Vector_baseIiSaIiEE11_M_allocateEm
00000000000541a0 g    DF .text	0000000000000033  Base        _ZN9CSndUListD1Ev
000000000003a765  w   DF .text	000000000000002b  Base        _ZSt22__uninitialized_copy_aIPiS0_iET0_T_S2_S1_RSaIT1_E
00000000000448e4  w   DF .text	000000000000002f  Base        _ZNSt4pairISt17_Rb_tree_iteratorIiES1_EC1ERKS1_S4_
0000000000055fd6  w   DF .text	0000000000000017  Base        _ZNSt12_Vector_baseIN16CRendezvousQueue3CRLESaIS1_EE12_Vector_implD1Ev
000000000005278a g    DF .text	000000000000009c  Base        _ZN9CRcvQueue11getNewEntryEv
00000000000569cc  w   DF .text	0000000000000037  Base        _ZNSt6vectorIP4CUDTSaIS1_EED1Ev
00000000000411f4 g    DF .text	000000000000029c  Base        _ZN10CUDTUnited4bindEii
000000000004dfc4 g    DF .text	00000000000006df  Base        _ZN12CSndLossList6removeERKi
0000000000039db4  w   DF .text	0000000000000017  Base        _ZNSaISt13_Rb_tree_nodeIiEEC2Ev
0000000000058564 g    DO .rodata	0000000000000004  Base        _ZN4CUDT14m_iSYNIntervalE
0000000000055968  w   DF .text	0000000000000040  Base        _ZN9__gnu_cxxmiIPN16CRendezvousQueue3CRLESt6vectorIS2_SaIS2_EEEENS_17__normal_iteratorIT_T0_E15difference_typeERKSA_SD_
0000000000269160 g    DO .bss	0000000000000198  Base        _ZN4CUDT11s_UDTUnitedE
00000000000446fc  w   DF .text	0000000000000012  Base        _ZNSt8_Rb_treeIiiSt9_IdentityIiESt4lessIiESaIiEE11_M_leftmostEv
0000000000047dc0 g    DF .text	0000000000000113  Base        _ZN3CCCC1Ev
00000000000405d6 g    DF .text	0000000000000023  Base        _ZN3UDT7connectEiPK8sockaddri
00000000000417de g    DF .text	000000000000013c  Base        _ZN10CUDTSocketC1Ev
00000000000561ce  w   DF .text	0000000000000017  Base        _ZNSaIN16CRendezvousQueue3CRLEEC2Ev
000000000005632c  w   DF .text	000000000000000a  Base        _ZN9__gnu_cxx13new_allocatorISt13_Rb_tree_nodeISt4pairIKiP7CPacketEEEC2Ev
0000000000056722  w   DF .text	000000000000001f  Base        _ZN9__gnu_cxx13new_allocatorISt13_Rb_tree_nodeISt4pairIKiP7CPacketEEE10deallocateEPS7_m
00000000000509d4  w   DF .text	0000000000000012  Base        _ZNSt8_Rb_treeIP10CInfoBlockS1_St9_IdentityIS1_E7CIPCompSaIS1_EE11_M_leftmostEv
0000000000269140 g    D  *ABS*	0000000000000000  Base        __bss_start
000000000004ab0c g    DF .text	0000000000000094  Base        _ZN14CPktTimeWindow12onPktArrivalEv
0000000000055c46  w   DF .text	000000000000001e  Base        _ZNSt6vectorIN16CRendezvousQueue3CRLESaIS1_EE5clearEv
0000000000045658  w   DF .text	0000000000000017  Base        _ZNSt3mapIiP10CUDTSocketSt4lessIiESaISt4pairIKiS1_EEE5clearEv
00000000000334ce g    DF .text	000000000000003b  Base        _ZN6CTimer5sleepERKm
000000000004481e  w   DF .text	0000000000000041  Base        _ZNSt8_Rb_treeIiSt4pairIKiP10CUDTSocketESt10_Select1stIS4_ESt4lessIiESaIS4_EE13_Rb_tree_implIS8_Lb0EE13_M_initializeEv
0000000000050d0e  w   DF .text	0000000000000052  Base        _ZNSt8_Rb_treeIP10CInfoBlockS1_St9_IdentityIS1_E7CIPCompSaIS1_EE8_M_eraseEPSt13_Rb_tree_nodeIS1_E
0000000000050a68  w   DF .text	0000000000000038  Base        _ZNKSt8_Rb_treeIP10CInfoBlockS1_St9_IdentityIS1_E7CIPCompSaIS1_EE13get_allocatorEv
0000000000044c8d  w   DF .text	000000000000000e  Base        _ZNSt12__miter_baseIPP10CUDTSocketLb0EE3__bES2_
00000000000564b6  w   DF .text	000000000000009a  Base        _ZNSt8_Rb_treeIiSt4pairIKiP7CPacketESt10_Select1stIS4_ESt4lessIiESaIS4_EE4findERS1_
000000000005482c g    DF .text	0000000000000055  Base        _ZN16CRendezvousQueueC1Ev
00000000000498ec g    DF .text	000000000000008a  Base        _ZN10CRcvBufferD2Ev
000000000003360c g    DF .text	0000000000000028  Base        _ZN6CTimerD1Ev
00000000000533d8 g    DF .text	0000000000000164  Base        _ZN10CUnitQueue16getNextAvailUnitEv
0000000000056ad8  w   DF .text	0000000000000024  Base        _ZNSt8_Rb_treeIiSt4pairIKiP7CPacketESt10_Select1stIS4_ESt4lessIiESaIS4_EE11_M_get_nodeEv
0000000000041a56 g    DF .text	00000000000000ad  Base        _ZN10CUDTUnited7startupEv
0000000000039d36  w   DF .text	0000000000000017  Base        _ZNSt12_Vector_baseIiSaIiEE12_Vector_implD1Ev
000000000005290a g    DF .text	0000000000000084  Base        _ZN9CRcvQueue11setNewEntryEP4CUDT
000000000004fd66  w   DF .text	0000000000000017  Base        _ZNSt8_Rb_treeIP10CInfoBlockS1_St9_IdentityIS1_E7CIPCompSaIS1_EE13_Rb_tree_implIS4_Lb1EED1Ev
000000000005682c  w   DF .text	0000000000000031  Base        _ZNSt12_Vector_baseIP4CUDTSaIS1_EE13_M_deallocateEPS1_m
0000000000044c54  w   DF .text	000000000000000a  Base        _ZN9__gnu_cxx13new_allocatorIP10CUDTSocketED2Ev
000000000003dfb6 g    DF .text	00000000000001f6  Base        _ZN4CUDT7recvmsgEiPci
0000000000058376  w   DF .text	0000000000000048  Base        _ZNSt8_Rb_treeIiSt4pairIKiP7CPacketESt10_Select1stIS4_ESt4lessIiESaIS4_EE5eraseESt17_Rb_tree_iteratorIS4_E
000000000004fe82  w   DF .text	0000000000000017  Base        _ZNKSt3setIP10CInfoBlock7CTSCompSaIS1_EE3endEv
000000000005087e  w   DF .text	0000000000000017  Base        _ZNSt3setIP10CInfoBlock7CIPCompSaIS1_EEC1Ev
0000000000055b4a  w   DF .text	000000000000003d  Base        _ZNK9__gnu_cxx17__normal_iteratorIPP4CUDTSt6vectorIS2_SaIS2_EEEplERKl
000000000004480c  w   DF .text	0000000000000012  Base        _ZNSt8_Rb_treeIiSt4pairIKiP10CUDTSocketESt10_Select1stIS4_ESt4lessIiESaIS4_EE12_M_rightmostEv
0000000000039570  w   DF .text	0000000000000015  Base        _ZNKSt23_Rb_tree_const_iteratorIiEdeEv
0000000000045b28  w   DF .text	0000000000000057  Base        _ZN9__gnu_cxx13new_allocatorI12CMultiplexerE8allocateEmPKv
0000000000055aac  w   DF .text	000000000000001c  Base        _ZN9__gnu_cxx17__normal_iteratorIPP4CUDTSt6vectorIS2_SaIS2_EEEC1ERKS3_
0000000000048cac g    DF .text	000000000000007e  Base        _ZN10CSndBuffer8readDataEPPcRi
0000000000050f76  w   DF .text	0000000000000068  Base        _ZNSt8_Rb_treeIP10CInfoBlockS1_St9_IdentityIS1_E7CTSCompSaIS1_EE5eraseERKS1_
000000000004980c g    DF .text	0000000000000055  Base        _ZN10CRcvBuffer7ackDataERKi
0000000000045446  w   DF .text	000000000000001b  Base        _ZNSaISt4pairIKiP10CUDTSocketEEC1ISt13_Rb_tree_nodeIS3_EEERKSaIT_E
0000000000058b0c g    DO .rodata	0000000000000004  Base        _ZN13CUDTException9EINVPARAME
000000000004f846 g    DF .text	0000000000000107  Base        _ZN6CCacheD1Ev
00000000000330aa g    DF .text	000000000000003f  Base        _ZN13CUDTExceptionD0Ev
0000000000034385 g    DF .text	0000000000000029  Base        Java_com_barchart_udt_SocketUDT_testMakeArray0
0000000000050288  w   DF .text	0000000000000012  Base        _ZNSt8_Rb_treeIP10CInfoBlockS1_St9_IdentityIS1_E7CTSCompSaIS1_EE8_S_valueEPKSt13_Rb_tree_nodeIS1_E
0000000000048b70 g    DF .text	0000000000000059  Base        _ZNK3CCC13sendCustomMsgER7CPacket
0000000000047119  w   DF .text	0000000000000027  Base        _ZNSt20__uninitialized_copyILb1EE18uninitialized_copyIPP10CUDTSocketS4_EET0_T_S6_S5_
0000000000048bca  w   DF .text	000000000000000a  Base        _ZN3CCC4initEv
000000000005854c g    DO .rodata	0000000000000004  Base        _ZN6CSeqNo10m_iSeqNoTHE
0000000000032798 g    DF .text	0000000000000010  Base        _ZN6CTimer15getCPUFrequencyEv
0000000000266b20  w   DO .data.rel.ro	0000000000000030  Base        _ZTV10CCCFactoryI6CUDTCCE
00000000000416c6 g    DF .text	000000000000001b  Base        _ZN3UDT4bindEii
000000000005680c  w   DF .text	000000000000001f  Base        _ZN9__gnu_cxx13new_allocatorIP4CUDTE10deallocateEPS2_m
000000000004434c  w   DF .text	0000000000000036  Base        _ZN9__gnu_cxxneIP12CMultiplexerSt6vectorIS1_SaIS1_EEEEbRKNS_17__normal_iteratorIT_T0_EESB_
00000000000288ac g    DF .text	00000000000007d8  Base        _ZN4CUDT11checkTimersEv
00000000000560bc  w   DF .text	000000000000000a  Base        _ZNSt4pairIKiP7CPacketED1Ev
000000000003fab0 g    DF .text	0000000000000259  Base        _ZN10CUDTUnited4bindEiPK8sockaddrRKi
0000000000029956 g    DF .text	000000000000135c  Base        _ZN4CUDT11processCtrlER7CPacket
00000000000558a4  w   DF .text	0000000000000011  Base        _ZNK9__gnu_cxx17__normal_iteratorIPP4CUDTSt6vectorIS2_SaIS2_EEEdeEv
000000000003588f g    DF .text	0000000000000137  Base        UDT_NewLingerUDT
0000000000051604  w   DF .text	000000000000006f  Base        _ZNSt3setIP10CInfoBlock7CIPCompSaIS1_EE6insertERKS1_
00000000000541d4 g    DF .text	0000000000000033  Base        _ZN9CSndUListD2Ev
0000000000047fc6 g    DF .text	0000000000000021  Base        _ZN3CCC14setMaxCWndSizeERKi
0000000000044084  w   DF .text	0000000000000011  Base        _ZNK9__gnu_cxx17__normal_iteratorIPKiSt6vectorIiSaIiEEEdeEv
00000000000512e4  w   DF .text	0000000000000057  Base        _ZNSt8_Rb_treeIP10CInfoBlockS1_St9_IdentityIS1_E7CIPCompSaIS1_EE14_M_create_nodeERKS1_
00000000000343ae g    DF .text	0000000000000062  Base        Java_com_barchart_udt_SocketUDT_testGetSetArray0
000000000004b862 g    DF .text	00000000000000c7  Base        _ZN10CACKWindowC1ERKi
0000000000039a03  w   DF .text	0000000000000040  Base        _ZN9__gnu_cxxmiIPiSt6vectorIiSaIiEEEENS_17__normal_iteratorIT_T0_E15difference_typeERKS8_SB_
000000000003acea  w   DF .text	000000000000004f  Base        _ZNSt8_Rb_treeIiiSt9_IdentityIiESt4lessIiESaIiEE15_M_destroy_nodeEPSt13_Rb_tree_nodeIiE
0000000000056409  w   DF .text	0000000000000012  Base        _ZNSt8_Rb_treeIiSt4pairIKiP7CPacketESt10_Select1stIS4_ESt4lessIiESaIS4_EE8_S_valueEPKSt13_Rb_tree_nodeIS4_E
0000000000039ef2  w   DF .text	000000000000001b  Base        _ZNSaIiEC1ISt13_Rb_tree_nodeIiEEERKSaIT_E
0000000000045b80  w   DF .text	0000000000000040  Base        _ZNSt12_Vector_baseI12CMultiplexerSaIS0_EE11_M_allocateEm
0000000000034c61 g    DF .text	0000000000000166  Base        XXX_ThrowSocketExceptionMessage
000000000003998a  w   DF .text	000000000000000e  Base        _ZNK9__gnu_cxx17__normal_iteratorIPKiSt6vectorIiSaIiEEE4baseEv
000000000004f452 g    DF .text	0000000000000028  Base        _ZNK7CTSCompclEPK10CInfoBlockS2_
0000000000047cac g    DF .text	0000000000000113  Base        _ZN3CCCC2Ev
000000000004191a g    DF .text	000000000000013c  Base        _ZN10CUDTSocketC2Ev
0000000000039906  w   DF .text	0000000000000011  Base        _ZNK9__gnu_cxx17__normal_iteratorIPiSt6vectorIiSaIiEEEdeEv
00000000000338e2 g    DF .text	000000000000001f  Base        _ZN7CPacket9setLengthERKi
000000000004431a  w   DF .text	0000000000000023  Base        _ZNSt6vectorI12CMultiplexerSaIS0_EE3endEv
0000000000034faa g    DF .text	0000000000000167  Base        UDT_InitClassRefAll
0000000000044032  w   DF .text	0000000000000020  Base        _ZN9__gnu_cxx17__normal_iteratorIPP10CUDTSocketSt6vectorIS2_SaIS2_EEEppEv
0000000000044d9e  w   DF .text	0000000000000017  Base        _ZNSaISt13_Rb_tree_nodeISt4pairIKiP10CUDTSocketEEEC2Ev
000000000003a878  w   DF .text	0000000000000049  Base        _ZN9__gnu_cxx13new_allocatorIiE8allocateEmPKv
0000000000044382  w   DF .text	0000000000000036  Base        _ZN9__gnu_cxxeqIP12CMultiplexerSt6vectorIS1_SaIS1_EEEEbRKNS_17__normal_iteratorIT_T0_EESB_
0000000000050984  w   DF .text	0000000000000012  Base        _ZNSt8_Rb_treeIP10CInfoBlockS1_St9_IdentityIS1_E7CTSCompSaIS1_EE12_M_rightmostEv
0000000000054a80 g    DF .text	0000000000000055  Base        _ZN16CRendezvousQueueC2Ev
0000000000034410 g    DF .text	0000000000000020  Base        Java_com_barchart_udt_SocketUDT_testCrashJVM0
0000000000033634 g    DF .text	0000000000000028  Base        _ZN6CTimerD2Ev
00000000000553c2 g    DF .text	0000000000000034  Base        _ZN9CSndQueue6sendtoEPK8sockaddrR7CPacket
000000000003ef3f g    DF .text	0000000000000034  Base        _ZN3UDT10getsockoptEii6UDTOptPvPi
00000000000398be  w   DF .text	0000000000000017  Base        _ZNSt8_Rb_treeIiiSt9_IdentityIiESt4lessIiESaIiEE13_Rb_tree_implIS3_Lb0EED1Ev
000000000005586c  w   DF .text	0000000000000015  Base        _ZNKSt17_Rb_tree_iteratorISt4pairIKiP7CPacketEEptEv
000000000004aba0 g    DF .text	000000000000025a  Base        _ZN10CACKWindow11acknowledgeERKiRi
00000000000440cc  w   DF .text	0000000000000011  Base        _ZNK9__gnu_cxx17__normal_iteratorIP12CMultiplexerSt6vectorIS1_SaIS1_EEEptEv
0000000000030358 g    DF .text	00000000000014d2  Base        _ZN4CUDT7connectEPK8sockaddr
0000000000046cec  w   DF .text	0000000000000027  Base        _ZNSt20__uninitialized_copyILb1EE18uninitialized_copyIP12CMultiplexerS3_EET0_T_S5_S4_
0000000000044500  w   DF .text	0000000000000018  Base        _ZNKSt8_Rb_treeIiSt4pairIKiP10CUDTSocketESt10_Select1stIS4_ESt4lessIiESaIS4_EE5emptyEv
000000000003516e g    DF .text	0000000000000026  Base        Java_com_barchart_udt_SocketUDT_clearError0
0000000000039104  w   DF .text	000000000000002a  Base        _ZN7JNIEnv_12NewGlobalRefEP8_jobject
0000000000055818  w   DF .text	0000000000000020  Base        _ZN9__gnu_cxx17__normal_iteratorIPN16CRendezvousQueue3CRLESt6vectorIS2_SaIS2_EEEppEv
000000000003f2b0 g    DF .text	0000000000000025  Base        _ZN3UDT11getsocknameEiP8sockaddrPi
0000000000050254  w   DF .text	0000000000000034  Base        _ZNSt3setIP10CInfoBlock7CIPCompSaIS1_EE4findERKS1_
000000000003316a g    DF .text	000000000000006a  Base        _ZN13CUDTExceptionC1Eiii
000000000004aece g    DF .text	000000000000018a  Base        _ZNK14CPktTimeWindow12getBandwidthEv
00000000000562fc  w   DF .text	0000000000000017  Base        _ZNSt12_Vector_baseIP4CUDTSaIS1_EEC2Ev
0000000000033c00 g    DF .text	00000000000000c4  Base        _ZNK7CPacket5cloneEv
0000000000056161  w   DF .text	000000000000001a  Base        _ZNSt12__niter_baseIN9__gnu_cxx17__normal_iteratorIPP4CUDTSt6vectorIS3_SaIS3_EEEELb1EE3__bES8_
0000000000046b93  w   DF .text	000000000000009f  Base        _ZNSt11__copy_moveILb0ELb1ESt26random_access_iterator_tagE8__copy_mI12CMultiplexerEEPT_PKS4_S7_S5_
00000000002695d0 g    D  *ABS*	0000000000000000  Base        _end
000000000003a1c0  w   DF .text	0000000000000109  Base        _ZN7JNIEnv_13CallIntMethodEP8_jobjectP10_jmethodIDz
000000000003ef74 g    DF .text	0000000000000152  Base        _ZN10CUDTUnited11getsocknameEiP8sockaddrPi
000000000004fd2c  w   DF .text	000000000000000a  Base        _ZN9__gnu_cxx13new_allocatorISt13_Rb_tree_nodeIP10CInfoBlockEED2Ev
000000000005853c g    DO .rodata	0000000000000004  Base        _ZN4CUDT12INVALID_SOCKE
000000000004a5e8 g    DF .text	000000000000020f  Base        _ZN10CSndBufferC1ERKiS1_
0000000000058b10 g    DO .rodata	0000000000000004  Base        _ZN13CUDTException8EINVSOCKE
000000000004f94e g    DF .text	0000000000000107  Base        _ZN6CCacheD2Ev
0000000000039e66  w   DF .text	000000000000000a  Base        _ZN9__gnu_cxx13new_allocatorIiEC2Ev
00000000000330ea g    DF .text	000000000000003f  Base        _ZN13CUDTExceptionD1Ev
0000000000047f32 g    DF .text	0000000000000023  Base        _ZN3CCC6setRTOERKi
0000000000044e42  w   DF .text	000000000000000e  Base        _ZNKSt8_Rb_treeIiSt4pairIKiP10CUDTSocketESt10_Select1stIS4_ESt4lessIiESaIS4_EE21_M_get_Node_allocatorEv
00000000000450d4  w   DF .text	000000000000001f  Base        _ZNSt3mapIiP10CUDTSocketSt4lessIiESaISt4pairIKiS1_EEE4findERS5_
000000000004fefa  w   DF .text	0000000000000026  Base        _ZNSt8_Rb_treeIP10CInfoBlockS1_St9_IdentityIS1_E7CIPCompSaIS1_EE3endEv
0000000000046fc2  w   DF .text	0000000000000040  Base        _ZSt13copy_backwardIPP10CUDTSocketS2_ET0_T_S4_S3_
000000000004fd4e  w   DF .text	0000000000000017  Base        _ZNSt8_Rb_treeIP10CInfoBlockS1_St9_IdentityIS1_E7CTSCompSaIS1_EE13_Rb_tree_implIS4_Lb1EED1Ev
00000000000276a0 g    DF .text	000000000000031d  Base        _ZN8CChannel4openEPK8sockaddr
00000000000559a8  w   DF .text	0000000000000036  Base        _ZN9__gnu_cxxeqIPN16CRendezvousQueue3CRLESt6vectorIS2_SaIS2_EEEEbRKNS_17__normal_iteratorIT_T0_EESC_
0000000000047bb8  w   DF .text	0000000000000068  Base        _ZNSt8_Rb_treeIiiSt9_IdentityIiESt4lessIiESaIiEE5eraseERKi
000000000004f4ea g    DF .text	0000000000000117  Base        _ZN6CCache6lookupEPK8sockaddrRKiP10CInfoBlock
0000000000037d3e g    DF .text	00000000000000cc  Base        Java_com_barchart_udt_SocketUDT_close0
0000000000058458 g    DF .fini	0000000000000000  Base        _fini
000000000005106a  w   DF .text	0000000000000048  Base        _ZNSt8_Rb_treeIP10CInfoBlockS1_St9_IdentityIS1_E7CIPCompSaIS1_EE5eraseESt17_Rb_tree_iteratorIS1_E
000000000005670a  w   DF .text	0000000000000017  Base        _ZN5CUnitD1Ev
0000000000044db6  w   DF .text	000000000000005b  Base        _ZNSt8_Rb_treeIiSt4pairIKiP10CUDTSocketESt10_Select1stIS4_ESt4lessIiESaIS4_EE13_Rb_tree_implIS8_Lb0EEC1Ev
0000000000055da8  w   DF .text	0000000000000012  Base        _ZNSt8_Rb_treeIiSt4pairIKiP7CPacketESt10_Select1stIS4_ESt4lessIiESaIS4_EE6_M_endEv
00000000000471c2  w   DF .text	00000000000000b8  Base        _ZNKSt6vectorI12CMultiplexerSaIS0_EE12_M_check_lenEmPKc
000000000005133c  w   DF .text	00000000000000c2  Base        _ZNSt8_Rb_treeIP10CInfoBlockS1_St9_IdentityIS1_E7CIPCompSaIS1_EE10_M_insert_EPKSt18_Rb_tree_node_baseS9_RKS1_
000000000002d5e0 g    DF .text	0000000000000681  Base        _ZN4CUDT7recvmsgEPcRKi
0000000000031a1a g    DF .text	000000000000053e  Base        _ZN4CUDT4openEv
0000000000056620  w   DF .text	000000000000002e  Base        _ZNSt4pairISt17_Rb_tree_iteratorIS_IKiP7CPacketEEbEC1ERKS5_RKb
00000000000396d6  w   DF .text	000000000000001f  Base        _ZNSt6vectorIiSaIiEE5beginEv
000000000004fcb8  w   DF .text	000000000000001c  Base        _ZNSt23_Rb_tree_const_iteratorIP10CInfoBlockEC1ERKSt17_Rb_tree_iteratorIS1_E
000000000005261a g    DF .text	0000000000000052  Base        _ZN9CRcvQueue14removeListenerEPK4CUDT
000000000003a600  w   DF .text	000000000000005d  Base        _ZNSt11__copy_moveILb0ELb1ESt26random_access_iterator_tagE8__copy_mIiEEPT_PKS3_S6_S4_
0000000000057340  w   DF .text	00000000000000bd  Base        _ZNSt3mapIiP7CPacketSt4lessIiESaISt4pairIKiS1_EEEixERS5_
00000000000417c0 g    DF .text	0000000000000012  Base        _ZN4CUDT7cleanupEv
00000000000511ba  w   DF .text	000000000000001f  Base        _ZNSt3setIP10CInfoBlock7CIPCompSaIS1_EE5eraseERKS1_
00000000000456f2  w   DF .text	000000000000001f  Base        _ZN9__gnu_cxx13new_allocatorI12CMultiplexerE10deallocateEPS1_m
0000000000050a0a  w   DF .text	000000000000000a  Base        _ZN9__gnu_cxx13new_allocatorIP10CInfoBlockEC2Ev
0000000000045670  w   DF .text	000000000000006a  Base        _ZNSt8_Rb_treeIiSt4pairIKiP10CUDTSocketESt10_Select1stIS4_ESt4lessIiESaIS4_EED1Ev
0000000000044860  w   DF .text	000000000000000a  Base        _ZNSt4pairIKiP10CUDTSocketED1Ev
0000000000038b17 g    DF .text	0000000000000255  Base        X_ConvertInetSocketAddressToSockaddr
000000000004bb78 g    DF .text	000000000000004e  Base        md5_init
0000000000046ad9  w   DF .text	000000000000002b  Base        _ZSt22__copy_move_backward_aILb0EP12CMultiplexerS1_ET1_T0_S3_S2_
000000000004fd36  w   DF .text	0000000000000017  Base        _ZNSaISt13_Rb_tree_nodeIP10CInfoBlockEED2Ev
00000000000324d6  w   DF .text	0000000000000035  Base        _ZN6CAckNo6incackERKi
0000000000056138  w   DF .text	0000000000000029  Base        _ZNKSt6vectorIP4CUDTSaIS1_EE4sizeEv
00000000000441fc  w   DF .text	0000000000000040  Base        _ZN9__gnu_cxxmiIPP10CUDTSocketSt6vectorIS2_SaIS2_EEEENS_17__normal_iteratorIT_T0_E15difference_typeERKSA_SD_
000000000004ff46  w   DF .text	000000000000002e  Base        _ZNSt4pairISt17_Rb_tree_iteratorIP10CInfoBlockEbEC1ERKS3_RKb
0000000000047002  w   DF .text	000000000000005d  Base        _ZNSt11__copy_moveILb0ELb1ESt26random_access_iterator_tagE8__copy_mIP10CUDTSocketEEPT_PKS5_S8_S6_
000000000003989c  w   DF .text	000000000000000a  Base        _ZN9__gnu_cxx13new_allocatorISt13_Rb_tree_nodeIiEED2Ev
0000000000058b40 g    DO .rodata	0000000000000004  Base        _ZN13CUDTException8EUNKNOWNE
0000000000055d52  w   DF .text	0000000000000017  Base        _ZNSt3mapIiP7CPacketSt4lessIiESaISt4pairIKiS1_EEE3endEv
00000000000563e8  w   DF .text	000000000000000a  Base        _ZN9__gnu_cxx13new_allocatorISt4pairIKiP7CPacketEED2Ev
000000000003aca2  w   DF .text	000000000000001f  Base        _ZN9__gnu_cxx13new_allocatorISt13_Rb_tree_nodeIiEE10deallocateEPS2_m
000000000003182a g    DF .text	00000000000001f0  Base        _ZN4CUDT6listenEv
0000000000058acc g    DO .rodata	0000000000000004  Base        _ZN13CUDTException9ESOCKFAILE
0000000000057c56  w   DF .text	00000000000000b8  Base        _ZNKSt6vectorIP4CUDTSaIS1_EE12_M_check_lenEmPKc
00000000000474e6  w   DF .text	00000000000000f2  Base        _ZNSt6vectorI12CMultiplexerSaIS0_EE6insertEN9__gnu_cxx17__normal_iteratorIPS0_S2_EERKS0_
00000000000513fe  w   DF .text	0000000000000206  Base        _ZNSt8_Rb_treeIP10CInfoBlockS1_St9_IdentityIS1_E7CIPCompSaIS1_EE16_M_insert_uniqueERKS1_
000000000004feac  w   DF .text	0000000000000022  Base        _ZNKSt17_Rb_tree_iteratorIP10CInfoBlockEeqERKS2_
0000000000032a30 g    DF .text	00000000000000b2  Base        _ZN10CIPAddress4ptonEP8sockaddrPKjRKi
00000000000565b0  w   DF .text	000000000000001f  Base        _ZNSt3mapIiP7CPacketSt4lessIiESaISt4pairIKiS1_EEE11lower_boundERS5_
00000000000519b8  w   DF .text	000000000000006f  Base        _ZNSt3setIP10CInfoBlock7CTSCompSaIS1_EE6insertERKS1_
000000000002ad40 g    DF .text	00000000000000b6  Base        _ZN4CUDT9initSynchEv
0000000000047192  w   DF .text	000000000000002f  Base        _ZSt22__uninitialized_move_aIPP10CUDTSocketS2_SaIS1_EET0_T_S5_S4_RT1_
00000000000563f2  w   DF .text	0000000000000017  Base        _ZNSaISt4pairIKiP7CPacketEED1Ev
0000000000034dc7 g    DF .text	00000000000001e3  Base        X_InitClassReference
0000000000056c16  w   DF .text	0000000000000049  Base        _ZN9__gnu_cxx13new_allocatorIP4CUDTE8allocateEmPKv
0000000000038d6c g    DF .text	00000000000000ae  Base        X_InitSockAddr
0000000000057485  w   DF .text	0000000000000064  Base        _ZSt14__copy_move_a2ILb0EN9__gnu_cxx17__normal_iteratorIPP4CUDTSt6vectorIS3_SaIS3_EEEES8_ET1_T0_SA_S9_
000000000003a546  w   DF .text	000000000000002b  Base        _ZSt22__copy_move_backward_aILb0EPiS0_ET1_T0_S2_S1_
0000000000039d4e  w   DF .text	0000000000000017  Base        _ZNSaIiED1Ev
0000000000039238  w   DF .text	000000000000003a  Base        _ZN7JNIEnv_14SetObjectFieldEP8_jobjectP9_jfieldIDS1_
00000000000397ce  w   DF .text	0000000000000026  Base        _ZNSt8_Rb_treeIiiSt9_IdentityIiESt4lessIiESaIiEE5beginEv
0000000000051b14 g    DF .text	000000000000020e  Base        _ZN9CSndUList7remove_EPK4CUDT
0000000000054ad6 g    DF .text	00000000000000b1  Base        _ZN9CSndUListC1Ev
00000000000388c3 g    DF .text	0000000000000254  Base        X_ConvertSockaddrToInetSocketAddress
00000000000561e6  w   DF .text	000000000000003a  Base        _ZNSt12_Vector_baseIN16CRendezvousQueue3CRLESaIS1_EE12_Vector_implC1Ev
0000000000056314  w   DF .text	0000000000000017  Base        _ZNSt6vectorIP4CUDTSaIS1_EEC1Ev
0000000000058aec g    DO .rodata	0000000000000004  Base        _ZN13CUDTException5EFILEE
000000000003d91e g    DF .text	0000000000000024  Base        _ZN3UDT7perfmonEiP8CPerfMonb
0000000000039cc4  w   DF .text	0000000000000041  Base        _ZNSt8_Rb_treeIiiSt9_IdentityIiESt4lessIiESaIiEE13_Rb_tree_implIS3_Lb0EE13_M_initializeEv
0000000000027450 g    DF .text	0000000000000044  Base        _ZN8CChannel13getRcvBufSizeEv
0000000000032377  w   DF .text	00000000000000a3  Base        _ZN6CSeqNo6seqoffERKiS1_
0000000000058b00 g    DO .rodata	0000000000000004  Base        _ZN13CUDTException6EINVOPE
0000000000033ba8 g    DF .text	0000000000000011  Base        _ZNK7CPacket11getAckSeqNoEv
0000000000050ffe  w   DF .text	000000000000004b  Base        _ZNSt8_Rb_treeIP10CInfoBlockS1_St9_IdentityIS1_E7CIPCompSaIS1_EE5eraseESt23_Rb_tree_const_iteratorIS1_E
0000000000047ab0  w   DF .text	000000000000001f  Base        _ZNSt3mapIiP10CUDTSocketSt4lessIiESaISt4pairIKiS1_EEE5eraseERS5_
0000000000045712  w   DF .text	0000000000000031  Base        _ZNSt12_Vector_baseI12CMultiplexerSaIS0_EE13_M_deallocateEPS0_m
0000000000033b78 g    DF .text	0000000000000019  Base        _ZNK7CPacket7getTypeEv
000000000003312a g    DF .text	000000000000003f  Base        _ZN13CUDTExceptionD2Ev
0000000000055ae8  w   DF .text	0000000000000023  Base        _ZNSt6vectorIP4CUDTSaIS1_EE3endEv
000000000003ad8c  w   DF .text	000000000000006a  Base        _ZNSt8_Rb_treeIiiSt9_IdentityIiESt4lessIiESaIiEED1Ev
000000000003bc0e g    DF .text	000000000000000b  Base        _ZN3UDT12getlasterrorEv
0000000000050dd6  w   DF .text	000000000000006a  Base        _ZNSt8_Rb_treeIP10CInfoBlockS1_St9_IdentityIS1_E7CIPCompSaIS1_EED1Ev
0000000000055a9a  w   DF .text	0000000000000012  Base        _ZNSt8_Rb_treeIiSt4pairIKiP7CPacketESt10_Select1stIS4_ESt4lessIiESaIS4_EE8_M_beginEv
0000000000039f54  w   DF .text	000000000000000e  Base        _ZNKSt12_Vector_baseIiSaIiEE19_M_get_Tp_allocatorEv
0000000000050a30  w   DF .text	0000000000000038  Base        _ZNKSt8_Rb_treeIP10CInfoBlockS1_St9_IdentityIS1_E7CTSCompSaIS1_EE13get_allocatorEv
00000000000391d4  w   DF .text	0000000000000032  Base        _ZN7JNIEnv_14GetObjectFieldEP8_jobjectP9_jfieldID
000000000003365c g    DF .text	000000000000009e  Base        _ZN6CTimerC1Ev
0000000000048bfe  w   DF .text	000000000000000a  Base        _ZN3CCC9onTimeoutEv
000000000003b32a g    DF .text	000000000000012e  Base        _ZN10CUDTUnited9updateMuxEP4CUDTPK10CUDTSocket
00000000000445be  w   DF .text	000000000000000e  Base        _ZNKSt8_Rb_treeIiSt4pairIKiP10CUDTSocketESt10_Select1stIS4_ESt4lessIiESaIS4_EE8key_compEv
0000000000058afc g    DO .rodata	0000000000000004  Base        _ZN13CUDTException7EWRPERME
0000000000039e88  w   DF .text	000000000000003a  Base        _ZNSt12_Vector_baseIiSaIiEE12_Vector_implC1Ev
000000000005080a  w   DF .text	000000000000005b  Base        _ZNSt8_Rb_treeIP10CInfoBlockS1_St9_IdentityIS1_E7CIPCompSaIS1_EE13_Rb_tree_implIS4_Lb1EEC1Ev
0000000000045310  w   DF .text	000000000000000a  Base        _ZN9__gnu_cxx13new_allocatorIP10CUDTSocketEC2Ev
0000000000056129  w   DF .text	000000000000000e  Base        _ZNSt12__miter_baseIPP4CUDTLb0EE3__bES2_
000000000003ac20  w   DF .text	0000000000000049  Base        _ZNSt12_Vector_baseIiSaIiEED2Ev
000000000005058c  w   DF .text	0000000000000023  Base        _ZNSt8_Rb_treeIP10CInfoBlockS1_St9_IdentityIS1_E7CTSCompSaIS1_EE6_S_keyEPKSt18_Rb_tree_node_base
0000000000047ed4 g    DF .text	0000000000000041  Base        _ZN3CCC11setACKTimerERKi
0000000000039d65  w   DF .text	000000000000000e  Base        _ZNSt12__miter_baseIPiLb0EE3__bES0_
000000000003a5c0  w   DF .text	0000000000000040  Base        _ZSt13copy_backwardIPiS0_ET0_T_S2_S1_
0000000000045f00  w   DF .text	0000000000000206  Base        _ZNSt8_Rb_treeIiSt4pairIKiP10CUDTSocketESt10_Select1stIS4_ESt4lessIiESaIS4_EE16_M_insert_uniqueERKS4_
0000000000034bbd g    DF .text	00000000000000a4  Base        X_InitMethodRef
00000000000424c6 g    DF .text	000000000000055e  Base        _ZN10CUDTUnited12removeSocketEi
0000000000044732  w   DF .text	000000000000000e  Base        _ZSt8_DestroyIPP10CUDTSocketEvT_S3_
000000000003b1f0 g    DF .text	000000000000009f  Base        _ZN10CUDTUnited6locateEi
0000000000027408 g    DF .text	0000000000000047  Base        _ZNK8CChannel11getSockAddrEP8sockaddr
00000000000583be  w   DF .text	000000000000001f  Base        _ZNSt3mapIiP7CPacketSt4lessIiESaISt4pairIKiS1_EEE5eraseESt17_Rb_tree_iteratorIS6_E
0000000000049aea g    DF .text	0000000000000080  Base        _ZN10CRcvBufferC1EP10CUnitQueue
000000000004e6a4 g    DF .text	000000000000098a  Base        _ZN12CSndLossList6insertERKiS1_
00000000000500da  w   DF .text	0000000000000022  Base        _ZNKSt17_Rb_tree_iteratorIP10CInfoBlockEneERKS2_
000000000003e562 g    DF .text	00000000000001f9  Base        _ZN4CUDT4recvEiPcii
0000000000058550 g    DO .rodata	0000000000000004  Base        _ZN6CSeqNo11m_iMaxSeqNoE
000000000003ff49 g    DF .text	0000000000000023  Base        _ZN3UDT4bindEiPK8sockaddri
0000000000058ac8 g    DO .rodata	0000000000000004  Base        _ZN13CUDTException8ECONNREJE
000000000004586c  w   DF .text	0000000000000031  Base        _ZNSt12_Vector_baseIP10CUDTSocketSaIS1_EE13_M_deallocateEPS1_m
000000000004fb4e g    DF .text	0000000000000076  Base        _ZN6CCacheC1Ev
000000000003931e  w   DF .text	000000000000003c  Base        _ZN7JNIEnv_14SetDoubleFieldEP8_jobjectP9_jfieldIDd
0000000000266bc0  w   DO .data.rel.ro	0000000000000038  Base        _ZTV13CUDTException
000000000004a2aa g    DF .text	00000000000001d9  Base        _ZN10CSndBuffer9addBufferEPKcRKiS3_RKb
000000000004aa08 g    DF .text	0000000000000011  Base        _ZNK14CPktTimeWindow15getMinPktSndIntEv
000000000004dd8c g    DF .text	0000000000000238  Base        _ZN12CSndLossList10getLostSeqEv
00000000000442fa  w   DF .text	000000000000001f  Base        _ZNSt6vectorI12CMultiplexerSaIS0_EE5beginEv
0000000000035b72 g    DF .text	00000000000000a9  Base        X_NewLong
0000000000026f4c g    DF .text	000000000000003b  Base        _ZN8CChannelC1ERKi
000000000004cda6 g    DF .text	000000000000003e  Base        _ZNK12CRcvLossList15getFirstLostSeqEv
00000000000511da  w   DF .text	000000000000004b  Base        _ZNSt8_Rb_treeIP10CInfoBlockS1_St9_IdentityIS1_E7CTSCompSaIS1_EE5eraseESt23_Rb_tree_const_iteratorIS1_E
0000000000058b38 g    DO .rodata	0000000000000004  Base        _ZN13CUDTException9EASYNCSNDE
0000000000055c83  w   DF .text	000000000000000e  Base        _ZSt8_DestroyIPP4CUDTEvT_S3_
0000000000047ad0  w   DF .text	0000000000000048  Base        _ZNSt8_Rb_treeIiiSt9_IdentityIiESt4lessIiESaIiEE5eraseESt17_Rb_tree_iteratorIiE
000000000003ac6a  w   DF .text	0000000000000037  Base        _ZNSt6vectorIiSaIiEED1Ev
0000000000039d1e  w   DF .text	0000000000000017  Base        _ZNSaIiED2Ev
0000000000046df8  w   DF .text	0000000000000040  Base        _ZSt4copyIN9__gnu_cxx17__normal_iteratorIP12CMultiplexerSt6vectorIS2_SaIS2_EEEES7_ET0_T_S9_S8_
00000000000510b2  w   DF .text	00000000000000a0  Base        _ZNSt8_Rb_treeIP10CInfoBlockS1_St9_IdentityIS1_E7CIPCompSaIS1_EE5eraseESt17_Rb_tree_iteratorIS1_ES8_
000000000003b458 g    DF .text	0000000000000703  Base        _ZN10CUDTUnited9updateMuxEP4CUDTPK8sockaddrPKi
00000000000325ce  w   DF .text	000000000000002c  Base        _ZN10CCCFactoryI6CUDTCCE5cloneEv
000000000004495c  w   DF .text	0000000000000075  Base        _ZNSt8_Rb_treeIiiSt9_IdentityIiESt4lessIiESaIiEE14_M_upper_boundEPSt13_Rb_tree_nodeIiES8_RKi
0000000000054ce0 g    DF .text	00000000000000b1  Base        _ZN9CSndUListC2Ev
0000000000044fda  w   DF .text	0000000000000040  Base        _ZNSt8_Rb_treeIiSt4pairIKiP10CUDTSocketESt10_Select1stIS4_ESt4lessIiESaIS4_EE11lower_boundERS1_
000000000004486a  w   DF .text	000000000000001b  Base        _ZN9__gnu_cxx13new_allocatorISt4pairIKiP10CUDTSocketEE7destroyEPS5_
000000000003ae66  w   DF .text	0000000000000028  Base        _ZNSt23_Rb_tree_const_iteratorIiEppEv
000000000005104a  w   DF .text	000000000000001f  Base        _ZNSt3setIP10CInfoBlock7CIPCompSaIS1_EE5eraseESt23_Rb_tree_const_iteratorIS1_E
000000000002adf6 g    DF .text	0000000000000223  Base        _ZN4CUDTC1ERKS_
0000000000058b20 g    DO .rodata	0000000000000004  Base        _ZN13CUDTException11ERDVUNBOUNDE
0000000000048c16  w   DF .text	000000000000000e  Base        _ZN3CCC13onPktReceivedEPK7CPacket
0000000000044656  w   DF .text	0000000000000017  Base        _ZNSt3mapIiP10CUDTSocketSt4lessIiESaISt4pairIKiS1_EEE5beginEv
0000000000055d90  w   DF .text	0000000000000017  Base        _ZNSt3mapIiP7CPacketSt4lessIiESaISt4pairIKiS1_EEE5beginEv
00000000000469c8  w   DF .text	0000000000000036  Base        _ZNSt17_Rb_tree_iteratorISt4pairIKiP10CUDTSocketEEppEi
000000000003a4e1  w   DF .text	0000000000000065  Base        _ZNSt20__copy_move_backwardILb0ELb1ESt26random_access_iterator_tagE13__copy_move_bIiEEPT_PKS3_S6_S4_
000000000003a7c0  w   DF .text	00000000000000b8  Base        _ZNKSt6vectorIiSaIiEE12_M_check_lenEmPKc
000000000005676a  w   DF .text	000000000000004f  Base        _ZNSt8_Rb_treeIiSt4pairIKiP7CPacketESt10_Select1stIS4_ESt4lessIiESaIS4_EE15_M_destroy_nodeEPSt13_Rb_tree_nodeIS4_E
00000000000512c0  w   DF .text	0000000000000024  Base        _ZNSt8_Rb_treeIP10CInfoBlockS1_St9_IdentityIS1_E7CIPCompSaIS1_EE11_M_get_nodeEv
0000000000033cea g    DF .text	000000000000002c  Base        UDT_SetSocketID
00000000000448a8  w   DF .text	0000000000000017  Base        _ZNSt12_Vector_baseI12CMultiplexerSaIS0_EE12_Vector_implD1Ev
0000000000058b28 g    DO .rodata	0000000000000004  Base        _ZN13CUDTException9EDGRAMILLE
000000000004f602 g    DF .text	0000000000000244  Base        _ZN6CCache6updateEPK8sockaddrRKiP10CInfoBlock
0000000000039d73  w   DF .text	0000000000000037  Base        _ZSt3maxImERKT_S2_S2_
0000000000047f72 g    DF .text	000000000000001b  Base        _ZN3CCC12setBandwidthERKi
00000000000336fa g    DF .text	000000000000009e  Base        _ZN6CTimerC2Ev
00000000000469a0  w   DF .text	0000000000000028  Base        _ZNSt17_Rb_tree_iteratorISt4pairIKiP10CUDTSocketEEppEv
0000000000045e4e  w   DF .text	0000000000000049  Base        _ZN9__gnu_cxx13new_allocatorIP10CUDTSocketE8allocateEmPKv
000000000003521c g    DF .text	0000000000000087  Base        Java_com_barchart_udt_SocketUDT_testIterateSet0
000000000003819a g    DF .text	00000000000000a9  Base        Java_com_barchart_udt_SocketUDT_initClass0
0000000000039748  w   DF .text	0000000000000012  Base        _ZNSt8_Rb_treeIiiSt9_IdentityIiESt4lessIiESaIiEE6_M_endEv
0000000000039dcc  w   DF .text	000000000000005b  Base        _ZNSt8_Rb_treeIiiSt9_IdentityIiESt4lessIiESaIiEE13_Rb_tree_implIS3_Lb0EEC1Ev
0000000000044518  w   DF .text	0000000000000017  Base        _ZNKSt3mapIiP10CUDTSocketSt4lessIiESaISt4pairIKiS1_EEE5emptyEv
000000000002cf58 g    DF .text	0000000000000688  Base        _ZN4CUDT8sendfileERSt13basic_fstreamIcSt11char_traitsIcEERKlS6_RKi
0000000000039084  w   DF .text	0000000000000027  Base        _ZN7JNIEnv_9FindClassEPKc
00000000000446ac  w   DF .text	0000000000000026  Base        _ZNKSt8_Rb_treeIiiSt9_IdentityIiESt4lessIiESaIiEE3endEv
0000000000044569  w   DF .text	0000000000000012  Base        _ZNSt8_Rb_treeIiSt4pairIKiP10CUDTSocketESt10_Select1stIS4_ESt4lessIiESaIS4_EE8_S_rightEPSt18_Rb_tree_node_base
0000000000056062  w   DF .text	0000000000000017  Base        _ZNSt12_Vector_baseIP4CUDTSaIS1_EE12_Vector_implD1Ev
0000000000026f92 g    DF .text	000000000000000a  Base        _ZN8CChannelD1Ev
000000000003ecd5 g    DF .text	0000000000000033  Base        _ZN3UDT10setsockoptEii6UDTOptPKvi
0000000000040fa2 g    DF .text	0000000000000237  Base        _ZN4CUDT6listenEii
0000000000055f98  w   DF .text	000000000000001c  Base        _ZNSt23_Rb_tree_const_iteratorISt4pairIKiP7CPacketEEC1ERKSt17_Rb_tree_iteratorIS4_E
000000000004fdb3  w   DF .text	0000000000000012  Base        _ZNSt8_Rb_treeIP10CInfoBlockS1_St9_IdentityIS1_E7CTSCompSaIS1_EE7_S_leftEPSt18_Rb_tree_node_base
0000000000059920  w   DO .rodata	0000000000000008  Base        _ZTS6CUDTCC
0000000000055d12  w   DF .text	0000000000000019  Base        _ZNSt17_Rb_tree_iteratorISt4pairIKiP7CPacketEEC1EPSt13_Rb_tree_nodeIS4_E
0000000000033b64 g    DF .text	0000000000000014  Base        _ZNK7CPacket7getFlagEv
000000000004fe06  w   DF .text	0000000000000017  Base        _ZNKSt3setIP10CInfoBlock7CIPCompSaIS1_EE3endEv
0000000000033cc4 g    DF .text	0000000000000026  Base        UDT_GetSocketID
00000000000507e8  w   DF .text	000000000000000a  Base        _ZN9__gnu_cxx13new_allocatorISt13_Rb_tree_nodeIP10CInfoBlockEEC2Ev
000000000004727a  w   DF .text	000000000000026c  Base        _ZNSt6vectorI12CMultiplexerSaIS0_EE13_M_insert_auxEN9__gnu_cxx17__normal_iteratorIPS0_S2_EERKS0_
00000000000560c6  w   DF .text	000000000000001b  Base        _ZN9__gnu_cxx13new_allocatorISt4pairIKiP7CPacketEE7destroyEPS5_
000000000003964c  w   DF .text	000000000000000e  Base        _ZNSt12_Vector_baseIiSaIiEE19_M_get_Tp_allocatorEv
0000000000052016 g    DF .text	0000000000000080  Base        _ZN5CHashD1Ev
000000000004fbc4 g    DF .text	0000000000000076  Base        _ZN6CCacheC2Ev
000000000003985e  w   DF .text	0000000000000026  Base        _ZNKSt8_Rb_treeIiiSt9_IdentityIiESt4lessIiESaIiEE5beginEv
0000000000044530  w   DF .text	000000000000000a  Base        _ZN9__gnu_cxx13new_allocatorISt13_Rb_tree_nodeISt4pairIKiP10CUDTSocketEEED2Ev
00000000000351f0 g    DF .text	000000000000002c  Base        Java_com_barchart_udt_SocketUDT_getErrorCode0
00000000000485ea g    DF .text	00000000000003ed  Base        _ZN6CUDTCC5onACKERKi
0000000000050896  w   DF .text	000000000000005b  Base        _ZNSt8_Rb_treeIP10CInfoBlockS1_St9_IdentityIS1_E7CTSCompSaIS1_EE13_Rb_tree_implIS4_Lb1EEC1Ev
0000000000266b70  w   DO .data.rel.ro	0000000000000010  Base        _ZTI17CCCVirtualFactory
00000000000560f4  w   DF .text	0000000000000012  Base        _ZNKSt10_Select1stISt4pairIKiP7CPacketEEclERKS4_
00000000000583de  w   DF .text	0000000000000017  Base        _ZN5CUnitC1Ev
0000000000051246  w   DF .text	0000000000000028  Base        _ZNSt17_Rb_tree_iteratorIP10CInfoBlockEmmEv
0000000000050c7e  w   DF .text	0000000000000017  Base        _ZNSt3setIP10CInfoBlock7CTSCompSaIS1_EED1Ev
000000000005687e  w   DF .text	0000000000000031  Base        _ZNSt12_Vector_baseIN16CRendezvousQueue3CRLESaIS1_EE13_M_deallocateEPS1_m
00000000000395b0  w   DF .text	0000000000000015  Base        _ZN9__gnu_cxx17__normal_iteratorIPiSt6vectorIiSaIiEEEC1Ev
0000000000044d14  w   DF .text	000000000000001e  Base        _ZNSt6vectorIiSaIiEE5clearEv
0000000000055fed  w   DF .text	000000000000000e  Base        _ZNSt12__miter_baseIPN16CRendezvousQueue3CRLELb0EE3__bES2_
0000000000057624  w   DF .text	0000000000000040  Base        _ZSt4copyIPP4CUDTS2_ET0_T_S4_S3_
0000000000266c80  w   DO .data.rel.ro	0000000000000060  Base        _ZTV3CCC
0000000000044e12  w   DF .text	0000000000000017  Base        _ZNSt8_Rb_treeIiSt4pairIKiP10CUDTSocketESt10_Select1stIS4_ESt4lessIiESaIS4_EEC1Ev
0000000000048bde  w   DF .text	000000000000000e  Base        _ZN3CCC5onACKERKi
0000000000044d5a  w   DF .text	000000000000003a  Base        _ZNKSt6vectorI12CMultiplexerSaIS0_EE4sizeEv
000000000002b5de g    DF .text	0000000000000c4f  Base        _ZN4CUDT6setOptE6UDTOptPKvRKi
000000000002c22e g    DF .text	00000000000006e4  Base        _ZN4CUDT6sampleEP8CPerfMonb
000000000004705f  w   DF .text	000000000000002b  Base        _ZSt13__copy_move_aILb0EPP10CUDTSocketS2_ET1_T0_S4_S3_
00000000000507f2  w   DF .text	0000000000000017  Base        _ZNSaISt13_Rb_tree_nodeIP10CInfoBlockEEC2Ev
0000000000052116 g    DF .text	00000000000000e1  Base        _ZN10CUnitQueueD1Ev
00000000000399ce  w   DF .text	0000000000000035  Base        _ZNKSt6vectorIiSaIiEE5emptyEv
000000000003f4ce g    DF .text	00000000000001ea  Base        _ZN4CUDT11getpeernameEiP8sockaddrPi
000000000004fca6  w   DF .text	0000000000000012  Base        _ZNSt8_Rb_treeIP10CInfoBlockS1_St9_IdentityIS1_E7CTSCompSaIS1_EE8_M_beginEv
0000000000039daa  w   DF .text	000000000000000a  Base        _ZN9__gnu_cxx13new_allocatorISt13_Rb_tree_nodeIiEEC2Ev
00000000000393de  w   DF .text	0000000000000028  Base        _ZN7JNIEnv_11NewIntArrayEi
0000000000058292  w   DF .text	00000000000000e3  Base        _ZNSt6vectorIN16CRendezvousQueue3CRLESaIS1_EE6insertEN9__gnu_cxx17__normal_iteratorIPS1_S3_EERKS1_
000000000005664e  w   DF .text	000000000000000a  Base        _ZN9__gnu_cxx13new_allocatorISt4pairIKiP7CPacketEEC2Ev
0000000000057c16  w   DF .text	0000000000000040  Base        _ZSt13copy_backwardIPN16CRendezvousQueue3CRLES2_ET0_T_S4_S3_
0000000000055e90  w   DF .text	000000000000002b  Base        _ZNKSt6vectorIP4CUDTSaIS1_EE3endEv
0000000000044cd8  w   DF .text	000000000000003b  Base        _ZNSt6vectorIiSaIiEE15_M_erase_at_endEPi
0000000000056a04  w   DF .text	0000000000000049  Base        _ZNSt12_Vector_baseIN16CRendezvousQueue3CRLESaIS1_EED2Ev
0000000000055ac8  w   DF .text	000000000000001f  Base        _ZNSt6vectorIP4CUDTSaIS1_EE5beginEv
000000000004d720 g    DF .text	0000000000000293  Base        _ZN12CRcvLossList6insertERKiS1_
000000000003955e  w   DF .text	0000000000000012  Base        _ZnwmPv
0000000000029444 g    DF .text	0000000000000512  Base        _ZN4CUDT8packDataER7CPacketRm
0000000000051d70 g    DF .text	000000000000000a  Base        _ZN9CRcvUListD1Ev
0000000000031f58 g    DF .text	00000000000001b1  Base        _ZN4CUDTD1Ev
0000000000032ae2 g    DF .text	000000000000005b  Base        _ZN13CUDTExceptionC1ERKS_
00000000000397f4  w   DF .text	0000000000000022  Base        _ZNKSt17_Rb_tree_iteratorIiEeqERKS0_
0000000000043f32  w   DF .text	0000000000000029  Base        _ZNSt18_Rb_tree_node_base10_S_minimumEPS_
0000000000026f88 g    DF .text	000000000000000a  Base        _ZN8CChannelD2Ev
0000000000057a01  w   DF .text	000000000000004f  Base        _ZSt14__copy_move_a2ILb0EPN16CRendezvousQueue3CRLES2_ET1_T0_S4_S3_
000000000003a902  w   DF .text	0000000000000052  Base        _ZN9__gnu_cxx13new_allocatorISt13_Rb_tree_nodeIiEE8allocateEmPKv
0000000000045744  w   DF .text	000000000000005a  Base        _ZNSt12_Vector_baseI12CMultiplexerSaIS0_EED2Ev
000000000004418c  w   DF .text	0000000000000023  Base        _ZNSt6vectorIP10CUDTSocketSaIS1_EE3endEv
00000000000327f6 g    DF .text	00000000000000dc  Base        _ZN10CIPAddress5ipcmpEPK8sockaddrS2_RKi
0000000000055726 g    DF .text	00000000000000f2  Base        _ZN9CSndUList6updateEPK4CUDTRKb
0000000000058b3c g    DO .rodata	0000000000000004  Base        _ZN13CUDTException9EASYNCRCVE
000000000005298e g    DF .text	00000000000000ec  Base        _ZN16CRendezvousQueue6insertERKiS1_PK8sockaddr
000000000003bc6e g    DF .text	00000000000003a5  Base        _ZN10CUDTUnited6locateEiPK8sockaddrRKiS4_
0000000000032668  w   DF .text	0000000000000032  Base        _ZN17CCCVirtualFactoryD0Ev
0000000000052096 g    DF .text	0000000000000080  Base        _ZN5CHashD2Ev
0000000000039a64  w   DF .text	00000000000001be  Base        _ZSt6__findIN9__gnu_cxx17__normal_iteratorIPiSt6vectorIiSaIiEEEEiET_S7_S7_RKT0_St26random_access_iterator_tag
0000000000055b88  w   DF .text	000000000000000e  Base        _ZN9__gnu_cxx13new_allocatorIP4CUDTE7destroyEPS2_
0000000000047690  w   DF .text	00000000000001ec  Base        _ZNSt6vectorIP10CUDTSocketSaIS1_EE13_M_insert_auxEN9__gnu_cxx17__normal_iteratorIPS1_S3_EERKS1_
0000000000053a18 g    DF .text	00000000000000df  Base        _ZN9CRcvUList6updateEPK4CUDT
0000000000026f9c g    DF .text	000000000000001b  Base        _ZN8CChannel13setSndBufSizeERKi
0000000000039e28  w   DF .text	0000000000000017  Base        _ZNSt8_Rb_treeIiiSt9_IdentityIiESt4lessIiESaIiEEC1Ev
000000000003965a  w   DF .text	000000000000003b  Base        _ZN9__gnu_cxx13new_allocatorIiE9constructEPiRKi
0000000000041490 g    DF .text	0000000000000236  Base        _ZN4CUDT4bindEii
0000000000052464 g    DF .text	00000000000000ac  Base        _ZN5CHash6insertERKiPK4CUDT
0000000000047f16 g    DF .text	000000000000001b  Base        _ZN3CCC14setACKIntervalERKi
0000000000050866  w   DF .text	0000000000000017  Base        _ZNSt8_Rb_treeIP10CInfoBlockS1_St9_IdentityIS1_E7CIPCompSaIS1_EEC1Ev
00000000000566ac  w   DF .text	0000000000000049  Base        _ZN9__gnu_cxx13new_allocatorISt4pairIKiP7CPacketEE9constructEPS5_RKS5_
000000000004fee0  w   DF .text	0000000000000019  Base        _ZNSt17_Rb_tree_iteratorIP10CInfoBlockEC1EPSt13_Rb_tree_nodeIS1_E
0000000000033bba g    DF .text	0000000000000014  Base        _ZNK7CPacket14getMsgBoundaryEv
0000000000057a90  w   DF .text	0000000000000027  Base        _ZNSt20__uninitialized_copyILb1EE18uninitialized_copyIPN16CRendezvousQueue3CRLES4_EET0_T_S6_S5_
0000000000058096  w   DF .text	00000000000001fc  Base        _ZNSt6vectorIN16CRendezvousQueue3CRLESaIS1_EE13_M_insert_auxEN9__gnu_cxx17__normal_iteratorIPS1_S3_EERKS1_
000000000003f0c6 g    DF .text	00000000000001ea  Base        _ZN4CUDT11getsocknameEiP8sockaddrPi
00000000000328d2 g    DF .text	000000000000015d  Base        _ZN10CIPAddress4ntopEPK8sockaddrPjRKi
0000000000046b04  w   DF .text	000000000000004f  Base        _ZSt23__copy_move_backward_a2ILb0EP12CMultiplexerS1_ET1_T0_S3_S2_
0000000000058568 g    DO .rodata	0000000000000004  Base        _ZN4CUDT20m_iSelfClockIntervalE
0000000000039ec2  w   DF .text	0000000000000017  Base        _ZNSt12_Vector_baseIiSaIiEEC2Ev
000000000004466e  w   DF .text	0000000000000026  Base        _ZNSt8_Rb_treeIiSt4pairIKiP10CUDTSocketESt10_Select1stIS4_ESt4lessIiESaIS4_EE3endEv
0000000000055a8c  w   DF .text	000000000000000e  Base        _ZNSt12_Vector_baseIP4CUDTSaIS1_EE19_M_get_Tp_allocatorEv
0000000000046f48  w   DF .text	000000000000002b  Base        _ZSt22__copy_move_backward_aILb0EPP10CUDTSocketS2_ET1_T0_S4_S3_
000000000002b23e g    DF .text	000000000000039f  Base        _ZN4CUDT6getOptE6UDTOptPvRi
0000000000056b54  w   DF .text	00000000000000c2  Base        _ZNSt8_Rb_treeIiSt4pairIKiP7CPacketESt10_Select1stIS4_ESt4lessIiESaIS4_EE10_M_insert_EPKSt18_Rb_tree_node_baseSD_RKS4_
000000000004b92a g    DF .text	00000000000000c7  Base        _ZN10CACKWindowC2ERKi
000000000003a688  w   DF .text	000000000000004f  Base        _ZSt14__copy_move_a2ILb0EPiS0_ET1_T0_S2_S1_
0000000000033362 g    DF .text	0000000000000093  Base        _ZN6CTimer12waitForEventEv
0000000000033d16 g    DF .text	0000000000000437  Base        UDT_InitFieldMonitor
000000000005745a  w   DF .text	000000000000002b  Base        _ZSt13__copy_move_aILb0EPP4CUDTS2_ET1_T0_S4_S3_
0000000000055882  w   DF .text	0000000000000022  Base        _ZNKSt17_Rb_tree_iteratorISt4pairIKiP7CPacketEEeqERKS5_
000000000003ad3a  w   DF .text	0000000000000052  Base        _ZNSt8_Rb_treeIiiSt9_IdentityIiESt4lessIiESaIiEE8_M_eraseEPSt13_Rb_tree_nodeIiE
00000000000521f8 g    DF .text	00000000000000e1  Base        _ZN10CUnitQueueD2Ev
000000000004a0d6 g    DF .text	00000000000001d3  Base        _ZN10CSndBuffer17addBufferFromFileERSt13basic_fstreamIcSt11char_traitsIcEERKi
0000000000055dba  w   DF .text	000000000000000e  Base        _ZNK9__gnu_cxx17__normal_iteratorIPP4CUDTSt6vectorIS2_SaIS2_EEE4baseEv
00000000000359c6 g    DF .text	00000000000001ac  Base        X_NewInetAddress
000000000004584c  w   DF .text	000000000000001f  Base        _ZN9__gnu_cxx13new_allocatorIP10CUDTSocketE10deallocateEPS2_m
0000000000044096  w   DF .text	0000000000000015  Base        _ZN9__gnu_cxx17__normal_iteratorIP12CMultiplexerSt6vectorIS1_SaIS1_EEEC1Ev
0000000000051d66 g    DF .text	000000000000000a  Base        _ZN9CRcvUListD2Ev
0000000000049eae g    DF .text	000000000000009d  Base        _ZN10CSndBuffer7ackDataERKi
0000000000058ad4 g    DO .rodata	0000000000000004  Base        _ZN13CUDTException9ECONNFAILE
000000000004503a  w   DF .text	000000000000009a  Base        _ZNSt8_Rb_treeIiSt4pairIKiP10CUDTSocketESt10_Select1stIS4_ESt4lessIiESaIS4_EE4findERS1_
0000000000057ade  w   DF .text	000000000000002b  Base        _ZSt22__uninitialized_copy_aIPN16CRendezvousQueue3CRLES2_S1_ET0_T_S4_S3_RSaIT1_E
000000000004493a  w   DF .text	0000000000000022  Base        _ZNKSt17_Rb_tree_iteratorIiEneERKS0_
0000000000033902 g    DF .text	000000000000024f  Base        _ZN7CPacket4packERKiPvS2_S1_
0000000000044bef  w   DF .text	0000000000000012  Base        _ZNSt8_Rb_treeIiSt4pairIKiP10CUDTSocketESt10_Select1stIS4_ESt4lessIiESaIS4_EE8_S_valueEPKSt18_Rb_tree_node_base
000000000003210a g    DF .text	00000000000001b1  Base        _ZN4CUDTD2Ev
000000000003e1ac g    DF .text	0000000000000023  Base        _ZN3UDT7recvmsgEiPci
0000000000050061  w   DF .text	0000000000000023  Base        _ZNSt8_Rb_treeIP10CInfoBlockS1_St9_IdentityIS1_E7CIPCompSaIS1_EE6_S_keyEPKSt18_Rb_tree_node_base
000000000003a2ca  w   DF .text	000000000000010b  Base        _ZN7JNIEnv_14CallLongMethodEP8_jobjectP10_jmethodIDz
000000000005617c  w   DF .text	0000000000000012  Base        _ZNSt8_Rb_treeIiSt4pairIKiP7CPacketESt10_Select1stIS4_ESt4lessIiESaIS4_EE12_M_rightmostEv
0000000000039a44  w   DF .text	0000000000000020  Base        _ZN9__gnu_cxx17__normal_iteratorIPiSt6vectorIiSaIiEEEppEv
0000000000050a14  w   DF .text	000000000000001b  Base        _ZNSaIP10CInfoBlockEC1ISt13_Rb_tree_nodeIS0_EEERKSaIT_E
0000000000039e70  w   DF .text	0000000000000017  Base        _ZNSaIiEC2Ev
000000000005855c g    DO .rodata	0000000000000004  Base        _ZN6CMsgNo11m_iMaxMsgNoE
0000000000039eda  w   DF .text	0000000000000017  Base        _ZNSt6vectorIiSaIiEEC1Ev
000000000003e75b g    DF .text	0000000000000029  Base        _ZN3UDT4recvEiPcii
0000000000057b9c  w   DF .text	000000000000002b  Base        _ZSt22__copy_move_backward_aILb0EPN16CRendezvousQueue3CRLES2_ET1_T0_S4_S3_
00000000000517b2  w   DF .text	0000000000000206  Base        _ZNSt8_Rb_treeIP10CInfoBlockS1_St9_IdentityIS1_E7CTSCompSaIS1_EE16_M_insert_uniqueERKS1_
000000000004447a  w   DF .text	0000000000000085  Base        _ZN9__gnu_cxx13new_allocatorI12CMultiplexerE9constructEPS1_RKS1_
0000000000048b2c g    DF .text	0000000000000043  Base        _ZN3CCC11getPerfInfoEv
0000000000044c01  w   DF .text	0000000000000023  Base        _ZNSt8_Rb_treeIiSt4pairIKiP10CUDTSocketESt10_Select1stIS4_ESt4lessIiESaIS4_EE6_S_keyEPKSt18_Rb_tree_node_base
0000000000039f62  w   DF .text	0000000000000014  Base        _ZNK9__gnu_cxx13new_allocatorIiE8max_sizeEv
0000000000048f34 g    DF .text	0000000000000355  Base        _ZN10CRcvBuffer7scanMsgERiS0_Rb
0000000000044604  w   DF .text	0000000000000012  Base        _ZNSt8_Rb_treeIiSt4pairIKiP10CUDTSocketESt10_Select1stIS4_ESt4lessIiESaIS4_EE6_M_endEv
0000000000045518  w   DF .text	0000000000000027  Base        _ZNSt8_Rb_treeIiSt4pairIKiP10CUDTSocketESt10_Select1stIS4_ESt4lessIiESaIS4_EE11_M_put_nodeEPSt13_Rb_tree_nodeIS4_E
0000000000049648 g    DF .text	00000000000001c3  Base        _ZN10CRcvBuffer10readBufferEPcRKi
000000000004ff74  w   DF .text	0000000000000012  Base        _ZNSt8_Rb_treeIP10CInfoBlockS1_St9_IdentityIS1_E7CTSCompSaIS1_EE6_M_endEv
00000000000331d4 g    DF .text	000000000000006a  Base        _ZN13CUDTExceptionC2Eiii
0000000000266c00  w   DO .data.rel.ro	0000000000000010  Base        _ZTI13CUDTException
000000000004cde4 g    DF .text	0000000000000165  Base        _ZN12CRcvLossList12getLossArrayEPiRiRKiS3_
000000000003269a  w   DF .text	0000000000000032  Base        _ZN17CCCVirtualFactoryD1Ev
0000000000045408  w   DF .text	0000000000000014  Base        _ZNK9__gnu_cxx13new_allocatorI12CMultiplexerE8max_sizeEv
00000000000465ae  w   DF .text	00000000000003b6  Base        _ZNSt8_Rb_treeIiiSt9_IdentityIiESt4lessIiESaIiEE17_M_insert_unique_ESt23_Rb_tree_const_iteratorIiERKi
0000000000045540  w   DF .text	000000000000004f  Base        _ZNSt8_Rb_treeIiSt4pairIKiP10CUDTSocketESt10_Select1stIS4_ESt4lessIiESaIS4_EE15_M_destroy_nodeEPSt13_Rb_tree_nodeIS4_E
0000000000044e94  w   DF .text	000000000000003a  Base        _ZNSt12_Vector_baseI12CMultiplexerSaIS0_EE12_Vector_implC1Ev
000000000003e784 g    DF .text	00000000000002f0  Base        _ZN4CUDT4sendEiPKcii
0000000000049976 g    DF .text	00000000000000ba  Base        _ZN10CRcvBufferC1ERKiP10CUnitQueue
0000000000047c40  w   DF .text	000000000000004b  Base        _ZNSt8_Rb_treeIiiSt9_IdentityIiESt4lessIiESaIiEE5eraseESt23_Rb_tree_const_iteratorIiE
00000000000332a2 g    DF .text	0000000000000017  Base        _ZN6CGuard7enterCSER15pthread_mutex_t
000000000003d5be g    DF .text	000000000000012a  Base        _ZN10CUDTUnited6lookupEi
000000000003a717  w   DF .text	0000000000000027  Base        _ZNSt20__uninitialized_copyILb1EE18uninitialized_copyIPiS2_EET0_T_S4_S3_
00000000000560e1  w   DF .text	0000000000000012  Base        _ZNSt8_Rb_treeIiSt4pairIKiP7CPacketESt10_Select1stIS4_ESt4lessIiESaIS4_EE8_S_valueEPKSt18_Rb_tree_node_base
0000000000058b08 g    DO .rodata	0000000000000004  Base        _ZN13CUDTException9ECONNSOCKE
0000000000039918  w   DF .text	000000000000001c  Base        _ZN9__gnu_cxx17__normal_iteratorIPKiSt6vectorIiSaIiEEEC1ERKS2_
0000000000055d6a  w   DF .text	0000000000000026  Base        _ZNSt8_Rb_treeIiSt4pairIKiP7CPacketESt10_Select1stIS4_ESt4lessIiESaIS4_EE5beginEv
000000000005584a  w   DF .text	0000000000000022  Base        _ZNKSt17_Rb_tree_iteratorISt4pairIKiP7CPacketEEneERKS5_
00000000000274f2 g    DF .text	0000000000000189  Base        _ZN8CChannel13setUDPSockOptEv
00000000000562c2  w   DF .text	000000000000003a  Base        _ZNSt12_Vector_baseIP4CUDTSaIS1_EE12_Vector_implC1Ev
0000000000044429  w   DF .text	0000000000000051  Base        _ZN9__gnu_cxxmiIP12CMultiplexerSt6vectorIS1_SaIS1_EEEENS_17__normal_iteratorIT_T0_E15difference_typeERKS9_SC_
0000000000026eda g    DF .text	0000000000000035  Base        _ZN8CChannelC1Ev
000000000003f6b8 g    DF .text	0000000000000025  Base        _ZN3UDT11getpeernameEiP8sockaddrPi
00000000000469fe  w   DF .text	0000000000000036  Base        _ZNSt17_Rb_tree_iteratorIiEppEi
000000000004f0fe g    DF .text	0000000000000150  Base        _ZN12CSndLossListC1ERKi
00000000000446ea  w   DF .text	0000000000000012  Base        _ZNSt8_Rb_treeIiiSt9_IdentityIiESt4lessIiESaIiEE12_M_rightmostEv
000000000003f2d6 g    DF .text	00000000000001f8  Base        _ZN10CUDTUnited11getpeernameEiP8sockaddrPi
000000000004aa68 g    DF .text	0000000000000085  Base        _ZN14CPktTimeWindow13probe2ArrivalEv
0000000000058548 g    DO .rodata	0000000000000004  Base        _ZN3UDT5ERRORE
0000000000055dfe  w   DF .text	0000000000000040  Base        _ZN9__gnu_cxxmiIPP4CUDTSt6vectorIS2_SaIS2_EEEENS_17__normal_iteratorIT_T0_E15difference_typeERKSA_SD_
0000000000051e7c g    DF .text	0000000000000020  Base        _ZN5CHashC1Ev
000000000003772f g    DF .text	000000000000036c  Base        Java_com_barchart_udt_SocketUDT_setOption0
000000000004fe9a  w   DF .text	0000000000000012  Base        _ZNSt8_Rb_treeIP10CInfoBlockS1_St9_IdentityIS1_E7CIPCompSaIS1_EE6_M_endEv
000000000004708a  w   DF .text	000000000000004f  Base        _ZSt14__copy_move_a2ILb0EPP10CUDTSocketS2_ET1_T0_S4_S3_
0000000000044d94  w   DF .text	000000000000000a  Base        _ZN9__gnu_cxx13new_allocatorISt13_Rb_tree_nodeISt4pairIKiP10CUDTSocketEEEC2Ev
00000000000576dd  w   DF .text	000000000000002f  Base        _ZSt22__uninitialized_move_aIPP4CUDTS2_SaIS1_EET0_T_S5_S4_RT1_
00000000000333f6 g    DF .text	00000000000000d8  Base        _ZN6CTimer7sleeptoERKm
0000000000048e3e g    DF .text	000000000000002d  Base        _ZNK10CRcvBuffer15getAvailBufSizeEv
00000000000448d2  w   DF .text	0000000000000012  Base        _ZNSt8_Rb_treeIiSt4pairIKiP10CUDTSocketESt10_Select1stIS4_ESt4lessIiESaIS4_EE8_S_rightEPKSt18_Rb_tree_node_base
0000000000051f1c g    DF .text	0000000000000021  Base        _ZN9CRcvQueue10ifNewEntryEv
0000000000047c20  w   DF .text	000000000000001f  Base        _ZNSt3setIiSt4lessIiESaIiEE5eraseERKi
000000000003414d g    DF .text	00000000000001d3  Base        UDT_InitFieldRefAll
0000000000046f73  w   DF .text	000000000000004f  Base        _ZSt23__copy_move_backward_a2ILb0EPP10CUDTSocketS2_ET1_T0_S4_S3_
000000000005090a  w   DF .text	0000000000000017  Base        _ZNSt3setIP10CInfoBlock7CTSCompSaIS1_EEC1Ev
000000000003acc2  w   DF .text	0000000000000027  Base        _ZNSt8_Rb_treeIiiSt9_IdentityIiESt4lessIiESaIiEE11_M_put_nodeEPSt13_Rb_tree_nodeIiE
0000000000039f96  w   DF .text	0000000000000014  Base        _ZNK9__gnu_cxx13new_allocatorISt13_Rb_tree_nodeIiEE8max_sizeEv
0000000000039272  w   DF .text	0000000000000039  Base        _ZN7JNIEnv_15SetBooleanFieldEP8_jobjectP9_jfieldIDh
00000000000505b0  w   DF .text	0000000000000078  Base        _ZNSt8_Rb_treeIP10CInfoBlockS1_St9_IdentityIS1_E7CIPCompSaIS1_EE14_M_upper_boundEPSt13_Rb_tree_nodeIS1_ES9_RKS1_
00000000000568d8  w   DF .text	0000000000000028  Base        _ZNSt23_Rb_tree_const_iteratorISt4pairIKiP7CPacketEEppEv
000000000004fd8f  w   DF .text	0000000000000012  Base        _ZNSt8_Rb_treeIP10CInfoBlockS1_St9_IdentityIS1_E7CIPCompSaIS1_EE7_S_leftEPSt18_Rb_tree_node_base
00000000000553f6 g    DF .text	0000000000000130  Base        _ZN9CSndUList3popERP8sockaddrR7CPacket
0000000000039960  w   DF .text	000000000000002a  Base        _ZNKSt6vectorIiSaIiEE5beginEv
000000000003432e g    DF .text	0000000000000057  Base        Java_com_barchart_udt_SocketUDT_testIterateArray0
000000000004fa56 g    DF .text	000000000000007c  Base        _ZN6CCacheC1ERKj
0000000000055f7c  w   DF .text	000000000000001b  Base        _ZNKSt3mapIiP7CPacketSt4lessIiESaISt4pairIKiS1_EEE8key_compEv
0000000000047c8c  w   DF .text	000000000000001f  Base        _ZNSt3setIiSt4lessIiESaIiEE5eraseESt23_Rb_tree_const_iteratorIiE
000000000003e52b g    DF .text	0000000000000036  Base        _ZN3UDT7sendmsgEiPKciib
0000000000037c9c g    DF .text	000000000000006c  Base        UDT_IsSocketOpen
000000000003946a  w   DF .text	0000000000000038  Base        _ZN7JNIEnv_24ReleaseByteArrayElementsEP11_jbyteArrayPai
000000000004457b  w   DF .text	0000000000000012  Base        _ZNSt8_Rb_treeIiSt4pairIKiP10CUDTSocketESt10_Select1stIS4_ESt4lessIiESaIS4_EE7_S_leftEPSt18_Rb_tree_node_base
0000000000034430 g    DF .text	000000000000078d  Base        UDT_InitMethodRefAll
0000000000058abc g    DO .rodata	0000000000000004  Base        _ZN13CUDTException7SUCCESSE
0000000000039816  w   DF .text	000000000000002e  Base        _ZNSt4pairISt17_Rb_tree_iteratorIiEbEC1ERKS1_RKb
0000000000055cd6  w   DF .text	0000000000000017  Base        _ZNSt8_Rb_treeIiSt4pairIKiP7CPacketESt10_Select1stIS4_ESt4lessIiESaIS4_EE13_Rb_tree_implIS8_Lb0EED1Ev
0000000000051aaa g    DF .text	0000000000000059  Base        _ZN10CUnitQueueC1Ev
00000000000325fa  w   DF .text	0000000000000032  Base        _ZN17CCCVirtualFactoryD2Ev
0000000000056220  w   DF .text	0000000000000017  Base        _ZNSt12_Vector_baseIN16CRendezvousQueue3CRLESaIS1_EEC2Ev
0000000000052e36 g    DF .text	0000000000000134  Base        _ZN9CSndUList6insertERKlPK4CUDT
0000000000047fe8 g    DF .text	000000000000001b  Base        _ZN3CCC6setRTTERKi
0000000000044788  w   DF .text	0000000000000012  Base        _ZNSt8_Rb_treeIiiSt9_IdentityIiESt4lessIiESaIiEE7_M_rootEv
0000000000039622  w   DF .text	0000000000000012  Base        _ZNKSt8_Rb_treeIiiSt9_IdentityIiESt4lessIiESaIiEE4sizeEv
00000000000440ac  w   DF .text	0000000000000020  Base        _ZN9__gnu_cxx17__normal_iteratorIP12CMultiplexerSt6vectorIS1_SaIS1_EEEppEv
000000000002f884 g    DF .text	0000000000000ad4  Base        _ZN4CUDT7connectEPK8sockaddrP10CHandShake
0000000000056900  w   DF .text	000000000000006a  Base        _ZNSt8_Rb_treeIiSt4pairIKiP7CPacketESt10_Select1stIS4_ESt4lessIiESaIS4_EED1Ev
0000000000051d44 g    DF .text	0000000000000021  Base        _ZN9CRcvUListC1Ev
0000000000057771  w   DF .text	000000000000002b  Base        _ZSt22__copy_move_backward_aILb0EPP4CUDTS2_ET1_T0_S4_S3_
000000000005643e  w   DF .text	0000000000000078  Base        _ZNSt8_Rb_treeIiSt4pairIKiP7CPacketESt10_Select1stIS4_ESt4lessIiESaIS4_EE14_M_lower_boundEPSt13_Rb_tree_nodeIS4_ESD_RS1_
0000000000051f3e g    DF .text	00000000000000d7  Base        _ZN5CHash6removeERKi
000000000002f4ac g    DF .text	00000000000001eb  Base        _ZN4CUDTC1Ev
00000000000449d2  w   DF .text	0000000000000078  Base        _ZNSt8_Rb_treeIiiSt9_IdentityIiESt4lessIiESaIiEE14_M_lower_boundEPSt13_Rb_tree_nodeIiES8_RKi
0000000000047b18  w   DF .text	00000000000000a0  Base        _ZNSt8_Rb_treeIiiSt9_IdentityIiESt4lessIiESaIiEE5eraseESt17_Rb_tree_iteratorIiES7_
0000000000039ca0  w   DF .text	0000000000000023  Base        _ZNSt8_Rb_treeIiiSt9_IdentityIiESt4lessIiESaIiEE6_S_keyEPKSt18_Rb_tree_node_base
0000000000053baa g    DF .text	00000000000004a9  Base        _ZN9CRcvQueue6workerEPv
0000000000054b88 g    DF .text	0000000000000158  Base        _ZN9CSndQueue4initEPK8CChannelPK6CTimer
000000000004b33a g    DF .text	000000000000014f  Base        _ZN14CPktTimeWindowC1ERKiS1_
00000000000395c6  w   DF .text	000000000000001c  Base        _ZNSt23_Rb_tree_const_iteratorIiEC1ERKSt17_Rb_tree_iteratorIiE
0000000000026ea4 g    DF .text	0000000000000035  Base        _ZN8CChannelC2Ev
0000000000043fb6  w   DF .text	0000000000000022  Base        _ZNKSt17_Rb_tree_iteratorISt4pairIKiP10CUDTSocketEEeqERKS5_
000000000003f6de g    DF .text	00000000000001e2  Base        _ZN10CUDTUnited5closeEi
000000000004ffac  w   DF .text	0000000000000012  Base        _ZNKSt8_Rb_treeIP10CInfoBlockS1_St9_IdentityIS1_E7CIPCompSaIS1_EE4sizeEv
000000000004433e  w   DF .text	000000000000000e  Base        _ZNK9__gnu_cxx17__normal_iteratorIP12CMultiplexerSt6vectorIS1_SaIS1_EEE4baseEv
00000000000448c0  w   DF .text	0000000000000012  Base        _ZNKSt10_Select1stISt4pairIKiP10CUDTSocketEEclERKS4_
000000000003a998  w   DF .text	0000000000000031  Base        _ZNSt12_Vector_baseIiSaIiEE13_M_deallocateEPim
0000000000049482 g    DF .text	00000000000001c5  Base        _ZN10CRcvBuffer7readMsgEPcRKi
000000000004fda1  w   DF .text	0000000000000012  Base        _ZNSt8_Rb_treeIP10CInfoBlockS1_St9_IdentityIS1_E7CTSCompSaIS1_EE8_S_rightEPSt18_Rb_tree_node_base
00000000000417d2 g    DF .text	000000000000000b  Base        _ZN3UDT7cleanupEv
0000000000047140  w   DF .text	0000000000000027  Base        _ZSt18uninitialized_copyIPP10CUDTSocketS2_ET0_T_S4_S3_
0000000000044ece  w   DF .text	0000000000000017  Base        _ZNSt12_Vector_baseI12CMultiplexerSaIS0_EEC2Ev
000000000005779c  w   DF .text	000000000000004f  Base        _ZSt23__copy_move_backward_a2ILb0EPP4CUDTS2_ET1_T0_S4_S3_
0000000000053900 g    DF .text	0000000000000117  Base        _ZN16CRendezvousQueue8retrieveEPK8sockaddrRi
0000000000056a4e  w   DF .text	0000000000000037  Base        _ZNSt6vectorIN16CRendezvousQueue3CRLESaIS1_EED1Ev
0000000000051e5c g    DF .text	0000000000000020  Base        _ZN5CHashC2Ev
0000000000058b24 g    DO .rodata	0000000000000004  Base        _ZN13CUDTException10ESTREAMILLE
000000000004ca17 g    DF .text	0000000000000146  Base        md5_append
0000000000040c68 g    DF .text	000000000000033a  Base        _ZN10CUDTUnited6listenEiRKi
0000000000046d13  w   DF .text	0000000000000027  Base        _ZSt18uninitialized_copyIP12CMultiplexerS1_ET0_T_S3_S2_
0000000000266c20  w   DO .data.rel.ro	0000000000000060  Base        _ZTV6CUDTCC
0000000000044694  w   DF .text	0000000000000017  Base        _ZNSt3mapIiP10CUDTSocketSt4lessIiESaISt4pairIKiS1_EEE3endEv
0000000000033bce g    DF .text	000000000000001b  Base        _ZNK7CPacket15getMsgOrderFlagEv
0000000000269300 g    DO .bss	0000000000000008  Base        _ZN6CTimer17s_ullCPUFrequencyE
0000000000044404  w   DF .text	000000000000000a  Base        _ZN12CMultiplexerD1Ev
000000000005618e  w   DF .text	0000000000000012  Base        _ZNKSt8_Rb_treeIiSt4pairIKiP7CPacketESt10_Select1stIS4_ESt4lessIiESaIS4_EE4sizeEv
0000000000045bc0  w   DF .text	000000000000004f  Base        _ZNSt8_Rb_treeIiiSt9_IdentityIiESt4lessIiESaIiEE13_M_clone_nodeEPKSt13_Rb_tree_nodeIiE
000000000004adfa g    DF .text	00000000000000d4  Base        _ZN10CACKWindow5storeERKiS1_
000000000005782b  w   DF .text	000000000000005c  Base        _ZNSt11__copy_moveILb0ELb1ESt26random_access_iterator_tagE8__copy_mIN16CRendezvousQueue3CRLEEEPT_PKS5_S8_S6_
0000000000026f10 g    DF .text	000000000000003b  Base        _ZN8CChannelC2ERKi
0000000000045e98  w   DF .text	0000000000000040  Base        _ZNSt12_Vector_baseIP10CUDTSocketSaIS1_EE11_M_allocateEm
000000000005126e  w   DF .text	0000000000000052  Base        _ZN9__gnu_cxx13new_allocatorISt13_Rb_tree_nodeIP10CInfoBlockEE8allocateEmPKv
0000000000039406  w   DF .text	0000000000000032  Base        _ZN7JNIEnv_20GetByteArrayElementsEP11_jbyteArrayPh
0000000000057956  w   DF .text	00000000000000ab  Base        _ZNSt6vectorIN16CRendezvousQueue3CRLESaIS1_EE5eraseEN9__gnu_cxx17__normal_iteratorIPS1_S3_EE
0000000000056d50  w   DF .text	0000000000000206  Base        _ZNSt8_Rb_treeIiSt4pairIKiP7CPacketESt10_Select1stIS4_ESt4lessIiESaIS4_EE16_M_insert_uniqueERKS4_
0000000000048d3c g    DF .text	00000000000000ad  Base        _ZN10CRcvBuffer7addDataEP5CUniti
000000000004579e  w   DF .text	0000000000000037  Base        _ZNSt6vectorI12CMultiplexerSaIS0_EED1Ev
00000000000500fc  w   DF .text	0000000000000012  Base        _ZNSt8_Rb_treeIP10CInfoBlockS1_St9_IdentityIS1_E7CIPCompSaIS1_EE8_S_valueEPKSt13_Rb_tree_nodeIS1_E
0000000000033538 g    DF .text	0000000000000020  Base        _ZN6CTimer9interruptEv
000000000005604a  w   DF .text	0000000000000017  Base        _ZNSaIP4CUDTED2Ev
0000000000045948  w   DF .text	0000000000000028  Base        _ZNSt23_Rb_tree_const_iteratorIiEmmEv
0000000000039884  w   DF .text	0000000000000017  Base        _ZNKSt3setIiSt4lessIiESaIiEE5beginEv
0000000000054882 g    DF .text	00000000000001fe  Base        _ZN9CRcvQueue4initERKiS1_S1_S1_PK8CChannelPK6CTimer
0000000000051a50 g    DF .text	0000000000000059  Base        _ZN10CUnitQueueC2Ev
000000000004b286 g    DF .text	000000000000005a  Base        _ZN10CACKWindowD1Ev
00000000000442de  w   DF .text	000000000000001c  Base        _ZN9__gnu_cxx17__normal_iteratorIP12CMultiplexerSt6vectorIS1_SaIS1_EEEC1ERKS2_
0000000000044c9c  w   DF .text	0000000000000029  Base        _ZNKSt6vectorIP10CUDTSocketSaIS1_EE4sizeEv
0000000000057ab7  w   DF .text	0000000000000027  Base        _ZSt18uninitialized_copyIPN16CRendezvousQueue3CRLES2_ET0_T_S4_S3_
0000000000059928  w   DO .rodata	0000000000000005  Base        _ZTS3CCC
0000000000044776  w   DF .text	0000000000000012  Base        _ZNKSt8_Rb_treeIiiSt9_IdentityIiESt4lessIiESaIiEE8_M_beginEv
000000000003a9ca  w   DF .text	00000000000001e8  Base        _ZNSt6vectorIiSaIiEE13_M_insert_auxEN9__gnu_cxx17__normal_iteratorIPiS1_EERKi
000000000004787c  w   DF .text	00000000000000e3  Base        _ZNSt6vectorIP10CUDTSocketSaIS1_EE6insertEN9__gnu_cxx17__normal_iteratorIPS1_S3_EERKS1_
0000000000039934  w   DF .text	000000000000002b  Base        _ZNKSt6vectorIiSaIiEE3endEv
0000000000051d22 g    DF .text	0000000000000021  Base        _ZN9CRcvUListC2Ev
000000000004fc94  w   DF .text	0000000000000012  Base        _ZNSt8_Rb_treeIP10CInfoBlockS1_St9_IdentityIS1_E7CIPCompSaIS1_EE8_M_beginEv
0000000000055924  w   DF .text	000000000000000e  Base        _ZNK9__gnu_cxx17__normal_iteratorIPN16CRendezvousQueue3CRLESt6vectorIS2_SaIS2_EEE4baseEv
00000000000565ec  w   DF .text	0000000000000014  Base        _ZNK9__gnu_cxx13new_allocatorIP4CUDTE8max_sizeEv
000000000005685e  w   DF .text	000000000000001f  Base        _ZN9__gnu_cxx13new_allocatorIN16CRendezvousQueue3CRLEE10deallocateEPS2_m
000000000003231c  w   DF .text	000000000000005b  Base        _ZN6CSeqNo6seqlenERKiS1_
0000000000045970  w   DF .text	0000000000000028  Base        _ZNSt23_Rb_tree_const_iteratorISt4pairIKiP10CUDTSocketEEppEv
000000000002f698 g    DF .text	00000000000001eb  Base        _ZN4CUDTC2Ev
00000000000577eb  w   DF .text	0000000000000040  Base        _ZSt13copy_backwardIPP4CUDTS2_ET0_T_S4_S3_
0000000000044c24  w   DF .text	000000000000002f  Base        _ZNSt4pairISt17_Rb_tree_iteratorIS_IKiP10CUDTSocketEES5_EC1ERKS5_S8_
0000000000044064  w   DF .text	0000000000000020  Base        _ZN9__gnu_cxx17__normal_iteratorIPKiSt6vectorIiSaIiEEEppEv
0000000000045590  w   DF .text	0000000000000052  Base        _ZNSt8_Rb_treeIiSt4pairIKiP10CUDTSocketESt10_Select1stIS4_ESt4lessIiESaIS4_EE8_M_eraseEPSt13_Rb_tree_nodeIS4_E
0000000000045ed8  w   DF .text	0000000000000028  Base        _ZNSt17_Rb_tree_iteratorISt4pairIKiP10CUDTSocketEEmmEv
0000000000045d58  w   DF .text	00000000000000d2  Base        _ZNSt8_Rb_treeIiiSt9_IdentityIiESt4lessIiESaIiEEaSERKS5_
00000000000332f8 g    DF .text	000000000000003d  Base        _ZN6CGuardC2ER15pthread_mutex_t
00000000000441ee  w   DF .text	000000000000000e  Base        _ZNK9__gnu_cxx17__normal_iteratorIPP10CUDTSocketSt6vectorIS2_SaIS2_EEE4baseEv
0000000000029084 g    DF .text	00000000000003bf  Base        _ZN4CUDT11processDataEP5CUnit
00000000000397a1  w   DF .text	0000000000000012  Base        _ZNSt8_Rb_treeIiiSt9_IdentityIiESt4lessIiESaIiEE7_S_leftEPSt18_Rb_tree_node_base
0000000000055f2a  w   DF .text	0000000000000035  Base        _ZNKSt6vectorIP4CUDTSaIS1_EE5emptyEv
000000000003bbfc g    DF .text	0000000000000012  Base        _ZN4CUDT12getlasterrorEv
0000000000051d7a g    DF .text	00000000000000e2  Base        _ZN9CRcvUList6removeEPK4CUDT
0000000000055cbe  w   DF .text	0000000000000017  Base        _ZNSaISt13_Rb_tree_nodeISt4pairIKiP7CPacketEEED2Ev
00000000000386e9 g    DF .text	00000000000000ed  Base        Java_com_barchart_udt_SocketUDT_hasLoadedLocalSocketAddress
0000000000039c59  w   DF .text	0000000000000012  Base        _ZNSt8_Rb_treeIiiSt9_IdentityIiESt4lessIiESaIiEE8_S_valueEPKSt13_Rb_tree_nodeIiE
0000000000039e58  w   DF .text	000000000000000e  Base        _ZNKSt8_Rb_treeIiiSt9_IdentityIiESt4lessIiESaIiEE21_M_get_Node_allocatorEv
000000000005000e  w   DF .text	0000000000000041  Base        _ZNSt8_Rb_treeIP10CInfoBlockS1_St9_IdentityIS1_E7CTSCompSaIS1_EE13_Rb_tree_implIS4_Lb1EE13_M_initializeEv
000000000004a7f8 g    DF .text	000000000000020f  Base        _ZN10CSndBufferC2ERKiS1_
000000000004416c  w   DF .text	000000000000001f  Base        _ZNSt6vectorIP10CUDTSocketSaIS1_EE5beginEv
0000000000057b09  w   DF .text	000000000000002f  Base        _ZSt22__uninitialized_move_aIPN16CRendezvousQueue3CRLES2_SaIS1_EET0_T_S5_S4_RT1_
0000000000039160  w   DF .text	000000000000003a  Base        _ZN7JNIEnv_11GetMethodIDEP7_jclassPKcS3_
00000000000325a8  w   DF .text	0000000000000025  Base        _ZNSt4fposI11__mbstate_tEC1El
000000000003d174 g    DF .text	0000000000000412  Base        _ZN4CUDT6selectEiPSt3setIiSt4lessIiESaIiEES5_S5_PK7timeval
0000000000266ce0  w   DO .data.rel.ro	0000000000000018  Base        _ZTI6CUDTCC
0000000000058540 g    DO .rodata	0000000000000004  Base        _ZN4CUDT5ERRORE
00000000000396b2  w   DF .text	0000000000000023  Base        _ZNSt6vectorIiSaIiEE3endEv
00000000000526ce g    DF .text	0000000000000054  Base        _ZN9CSndUList15getNextProcTimeEv
0000000000054208 g    DF .text	0000000000000099  Base        _ZN9CSndQueueD1Ev
000000000003d586 g    DF .text	0000000000000038  Base        _ZN3UDT6selectEiPSt3setIiSt4lessIiESaIiEES5_S5_PK7timeval
0000000000046d3a  w   DF .text	000000000000002b  Base        _ZSt22__uninitialized_copy_aIP12CMultiplexerS1_S0_ET0_T_S3_S2_RSaIT1_E
0000000000055ef4  w   DF .text	0000000000000036  Base        _ZN9__gnu_cxxeqIPKP4CUDTSt6vectorIS2_SaIS2_EEEEbRKNS_17__normal_iteratorIT_T0_EESD_
0000000000050ad4  w   DF .text	0000000000000027  Base        _ZNSt8_Rb_treeIP10CInfoBlockS1_St9_IdentityIS1_E7CTSCompSaIS1_EE11_M_put_nodeEPSt13_Rb_tree_nodeIS1_E
000000000004f47a g    DF .text	0000000000000070  Base        _ZN6CCache7convertEPK8sockaddrRKiPj
000000000003a571  w   DF .text	000000000000004f  Base        _ZSt23__copy_move_backward_a2ILb0EPiS0_ET1_T0_S2_S1_
0000000000043100 g    DF .text	000000000000061b  Base        _ZN10CUDTUnited13newConnectionEiPK8sockaddrP10CHandShake
0000000000039c8e  w   DF .text	0000000000000012  Base        _ZNSt8_Rb_treeIiiSt9_IdentityIiESt4lessIiESaIiEE8_S_valueEPKSt18_Rb_tree_node_base
0000000000050b4c  w   DF .text	0000000000000052  Base        _ZNSt8_Rb_treeIP10CInfoBlockS1_St9_IdentityIS1_E7CTSCompSaIS1_EE8_M_eraseEPSt13_Rb_tree_nodeIS1_E
000000000004b058 g    DF .text	00000000000001a9  Base        _ZNK14CPktTimeWindow14getPktRcvSpeedEv
000000000004b2e0 g    DF .text	000000000000005a  Base        _ZN10CACKWindowD2Ev
00000000000394da  w   DF .text	0000000000000042  Base        _ZN7JNIEnv_17GetIntArrayRegionEP10_jintArrayiiPi
0000000000033336 g    DF .text	000000000000002b  Base        _ZN6CTimer7getTimeEv
0000000000037d08 g    DF .text	0000000000000036  Base        Java_com_barchart_udt_SocketUDT_isOpen0
000000000003d942 g    DF .text	0000000000000287  Base        _ZN4CUDT8recvfileEiRSt13basic_fstreamIcSt11char_traitsIcEERKlS6_RKi
000000000005010e  w   DF .text	0000000000000023  Base        _ZNSt8_Rb_treeIP10CInfoBlockS1_St9_IdentityIS1_E7CIPCompSaIS1_EE6_S_keyEPKSt13_Rb_tree_nodeIS1_E
000000000003262c  w   DF .text	000000000000003b  Base        _ZN10CCCFactoryI6CUDTCCED0Ev
0000000000050c14  w   DF .text	000000000000006a  Base        _ZNSt8_Rb_treeIP10CInfoBlockS1_St9_IdentityIS1_E7CTSCompSaIS1_EED1Ev
00000000000509e6  w   DF .text	0000000000000012  Base        _ZNSt8_Rb_treeIP10CInfoBlockS1_St9_IdentityIS1_E7CIPCompSaIS1_EE7_M_rootEv
0000000000056c60  w   DF .text	0000000000000040  Base        _ZNSt12_Vector_baseIP4CUDTSaIS1_EE11_M_allocateEm
0000000000046b53  w   DF .text	0000000000000040  Base        _ZSt13copy_backwardIP12CMultiplexerS1_ET0_T_S3_S2_
0000000000045c10  w   DF .text	0000000000000147  Base        _ZNSt8_Rb_treeIiiSt9_IdentityIiESt4lessIiESaIiEE7_M_copyEPKSt13_Rb_tree_nodeIiEPS7_
00000000000447c8  w   DF .text	000000000000000e  Base        _ZNSt12__miter_baseIN9__gnu_cxx17__normal_iteratorIP12CMultiplexerSt6vectorIS2_SaIS2_EEEELb0EE3__bES7_
000000000003a954  w   DF .text	0000000000000024  Base        _ZNSt8_Rb_treeIiiSt9_IdentityIiESt4lessIiESaIiEE11_M_get_nodeEv
0000000000046d65  w   DF .text	000000000000002f  Base        _ZSt22__uninitialized_move_aIP12CMultiplexerS1_SaIS0_EET0_T_S4_S3_RT1_
00000000000454e4  w   DF .text	0000000000000014  Base        _ZNK9__gnu_cxx13new_allocatorISt13_Rb_tree_nodeISt4pairIKiP10CUDTSocketEEE8max_sizeEv
000000000003919a  w   DF .text	000000000000003a  Base        _ZN7JNIEnv_10GetFieldIDEP7_jclassPKcS3_
0000000000027494 g    DF .text	0000000000000044  Base        _ZN8CChannel13getSndBufSizeEv
000000000003804b g    DF .text	00000000000000c4  Base        Java_com_barchart_udt_SocketUDT_initInstance0
00000000000402f6 g    DF .text	00000000000002e0  Base        _ZN4CUDT7connectEiPK8sockaddri
0000000000032552  w   DF .text	0000000000000055  Base        _ZN13CUDTExceptionaSERKS_
000000000003a0b6  w   DF .text	000000000000010a  Base        _ZN7JNIEnv_17CallBooleanMethodEP8_jobjectP10_jmethodIDz
000000000003567a g    DF .text	000000000000009a  Base        Java_com_barchart_udt_SocketUDT_initInstance1
000000000003978f  w   DF .text	0000000000000012  Base        _ZNSt8_Rb_treeIiiSt9_IdentityIiESt4lessIiESaIiEE8_S_rightEPSt18_Rb_tree_node_base
0000000000052826 g    DF .text	00000000000000e3  Base        _ZN16CRendezvousQueue6removeERKi
00000000000416e2 g    DF .text	00000000000000de  Base        _ZN10CUDTUnited7cleanupEv
00000000000440de  w   DF .text	0000000000000012  Base        _ZNSt8_Rb_treeIiSt4pairIKiP10CUDTSocketESt10_Select1stIS4_ESt4lessIiESaIS4_EE8_M_beginEv
00000000000411d9 g    DF .text	000000000000001b  Base        _ZN3UDT6listenEii
000000000005768b  w   DF .text	0000000000000027  Base        _ZSt18uninitialized_copyIPP4CUDTS2_ET0_T_S4_S3_
00000000000522da g    DF .text	0000000000000189  Base        _ZN9CSndUList7insert_ERKlPK4CUDT
0000000000056106  w   DF .text	0000000000000023  Base        _ZNSt8_Rb_treeIiSt4pairIKiP7CPacketESt10_Select1stIS4_ESt4lessIiESaIS4_EE6_S_keyEPKSt18_Rb_tree_node_base
000000000003250c  w   DF .text	000000000000001c  Base        _ZN17CCCVirtualFactoryC2Ev
000000000005634e  w   DF .text	000000000000005b  Base        _ZNSt8_Rb_treeIiSt4pairIKiP7CPacketESt10_Select1stIS4_ESt4lessIiESaIS4_EE13_Rb_tree_implIS8_Lb0EEC1Ev
0000000000056570  w   DF .text	0000000000000040  Base        _ZNSt8_Rb_treeIiSt4pairIKiP7CPacketESt10_Select1stIS4_ESt4lessIiESaIS4_EE11lower_boundERS1_
0000000000044f62  w   DF .text	0000000000000078  Base        _ZNSt8_Rb_treeIiSt4pairIKiP10CUDTSocketESt10_Select1stIS4_ESt4lessIiESaIS4_EE14_M_lower_boundEPSt13_Rb_tree_nodeIS4_ESD_RS1_
0000000000044e5a  w   DF .text	0000000000000017  Base        _ZNSaISt4pairIKiP10CUDTSocketEED1Ev
00000000000559de  w   DF .text	0000000000000049  Base        _ZN9__gnu_cxx13new_allocatorIN16CRendezvousQueue3CRLEE9constructEPS2_RKS2_
000000000003bc1a g    DF .text	0000000000000053  Base        _ZN10CUDTUnited8setErrorEP13CUDTException
0000000000045462  w   DF .text	0000000000000038  Base        _ZNKSt8_Rb_treeIiSt4pairIKiP10CUDTSocketESt10_Select1stIS4_ESt4lessIiESaIS4_EE13get_allocatorEv
0000000000056a86  w   DF .text	0000000000000051  Base        _ZN9__gnu_cxx13new_allocatorISt13_Rb_tree_nodeISt4pairIKiP7CPacketEEE8allocateEmPKv
0000000000057916  w   DF .text	0000000000000040  Base        _ZSt4copyIN9__gnu_cxx17__normal_iteratorIPN16CRendezvousQueue3CRLESt6vectorIS3_SaIS3_EEEES8_ET0_T_SA_S9_
00000000000563aa  w   DF .text	0000000000000017  Base        _ZNSt8_Rb_treeIiSt4pairIKiP7CPacketESt10_Select1stIS4_ESt4lessIiESaIS4_EEC1Ev
0000000000044272  w   DF .text	0000000000000036  Base        _ZN9__gnu_cxxneIPP10CUDTSocketSt6vectorIS2_SaIS2_EEEEbRKNS_17__normal_iteratorIT_T0_EESC_
00000000000464f0  w   DF .text	00000000000000bd  Base        _ZNSt3mapIiP10CUDTSocketSt4lessIiESaISt4pairIKiS1_EEEixERS5_
0000000000044010  w   DF .text	0000000000000022  Base        _ZNKSt23_Rb_tree_const_iteratorIiEneERKS0_
0000000000056658  w   DF .text	000000000000001b  Base        _ZNSaISt4pairIKiP7CPacketEEC1ISt13_Rb_tree_nodeIS3_EEERKSaIT_E
00000000000573fd  w   DF .text	000000000000005d  Base        _ZNSt11__copy_moveILb0ELb1ESt26random_access_iterator_tagE8__copy_mIP4CUDTEEPT_PKS5_S8_S6_
0000000000042a24 g    DF .text	0000000000000528  Base        _ZN10CUDTUnited18checkBrokenSocketsEv
00000000000542a2 g    DF .text	0000000000000099  Base        _ZN9CSndQueueD2Ev
0000000000047960  w   DF .text	0000000000000048  Base        _ZNSt8_Rb_treeIiSt4pairIKiP10CUDTSocketESt10_Select1stIS4_ESt4lessIiESaIS4_EE5eraseESt17_Rb_tree_iteratorIS4_E
0000000000051226  w   DF .text	000000000000001f  Base        _ZNSt3setIP10CInfoBlock7CTSCompSaIS1_EE5eraseESt23_Rb_tree_const_iteratorIS1_E
00000000000445e8  w   DF .text	000000000000001c  Base        _ZNSt23_Rb_tree_const_iteratorISt4pairIKiP10CUDTSocketEEC1ERKSt17_Rb_tree_iteratorIS4_E
0000000000038e1a g    DF .text	0000000000000144  Base        Java_com_barchart_udt_SocketUDT_connect0
000000000004470e  w   DF .text	0000000000000012  Base        _ZNSt8_Rb_treeIiiSt9_IdentityIiESt4lessIiESaIiEE8_S_rightEPKSt18_Rb_tree_node_base
000000000004dd54 g    DF .text	0000000000000037  Base        _ZN12CSndLossList13getLossLengthEv
000000000005093a  w   DF .text	0000000000000017  Base        _ZNSaIP10CInfoBlockED1Ev
0000000000058b18 g    DO .rodata	0000000000000004  Base        _ZN13CUDTException9ENOLISTENE
0000000000050c96  w   DF .text	0000000000000027  Base        _ZNSt8_Rb_treeIP10CInfoBlockS1_St9_IdentityIS1_E7CIPCompSaIS1_EE11_M_put_nodeEPSt13_Rb_tree_nodeIS1_E
000000000003fd0a g    DF .text	000000000000023f  Base        _ZN4CUDT4bindEiPK8sockaddri
0000000000050fde  w   DF .text	000000000000001f  Base        _ZNSt3setIP10CInfoBlock7CTSCompSaIS1_EE5eraseERKS1_
00000000000326cc  w   DF .text	000000000000003b  Base        _ZN10CCCFactoryI6CUDTCCED1Ev
0000000000039634  w   DF .text	0000000000000017  Base        _ZNKSt3setIiSt4lessIiESaIiEE4sizeEv
0000000000057a50  w   DF .text	0000000000000040  Base        _ZSt4copyIPN16CRendezvousQueue3CRLES2_ET0_T_S4_S3_
000000000003c6d8 g    DF .text	0000000000000a9b  Base        _ZN10CUDTUnited6selectEPSt3setIiSt4lessIiESaIiEES5_S5_PK7timeval
0000000000056238  w   DF .text	0000000000000017  Base        _ZNSt6vectorIN16CRendezvousQueue3CRLESaIS1_EEC1Ev
000000000004371c g    DF .text	00000000000004bb  Base        _ZN10CUDTUnited9newSocketERKiS1_
000000000004516a  w   DF .text	00000000000001a5  Base        _ZNSt8_Rb_treeIiSt4pairIKiP10CUDTSocketESt10_Select1stIS4_ESt4lessIiESaIS4_EE11equal_rangeERS1_
0000000000027db2 g    DF .text	00000000000000ae  Base        _ZN4CUDT12releaseSynchEv
00000000000578b2  w   DF .text	0000000000000064  Base        _ZSt14__copy_move_a2ILb0EN9__gnu_cxx17__normal_iteratorIPN16CRendezvousQueue3CRLESt6vectorIS3_SaIS3_EEEES8_ET1_T0_SA_S9_
000000000003aeb6  w   DF .text	00000000000000c2  Base        _ZNSt8_Rb_treeIiiSt9_IdentityIiESt4lessIiESaIiEE10_M_insert_EPKSt18_Rb_tree_node_baseS8_RKi
0000000000047f56 g    DF .text	000000000000001b  Base        _ZN3CCC6setMSSERKi
0000000000049a30 g    DF .text	00000000000000ba  Base        _ZN10CRcvBufferC2ERKiP10CUnitQueue
0000000000041b04 g    DF .text	0000000000000012  Base        _ZN4CUDT7startupEv
0000000000046d94  w   DF .text	0000000000000064  Base        _ZSt14__copy_move_a2ILb0EN9__gnu_cxx17__normal_iteratorIP12CMultiplexerSt6vectorIS2_SaIS2_EEEES7_ET1_T0_S9_S8_
0000000000055ee6  w   DF .text	000000000000000e  Base        _ZNK9__gnu_cxx17__normal_iteratorIPKP4CUDTSt6vectorIS2_SaIS2_EEE4baseEv
0000000000055b0c  w   DF .text	000000000000003d  Base        _ZN9__gnu_cxx13new_allocatorIP4CUDTE9constructEPS2_RKS2_
0000000000056280  w   DF .text	000000000000001f  Base        _ZNKSt6vectorIN16CRendezvousQueue3CRLESaIS1_EE8max_sizeEv
0000000000037a9b g    DF .text	0000000000000201  Base        Java_com_barchart_udt_SocketUDT_getOption0
000000000003a73e  w   DF .text	0000000000000027  Base        _ZSt18uninitialized_copyIPiS0_ET0_T_S2_S1_
0000000000056674  w   DF .text	0000000000000038  Base        _ZNKSt8_Rb_treeIiSt4pairIKiP7CPacketESt10_Select1stIS4_ESt4lessIiESaIS4_EE13get_allocatorEv
0000000000051a28  w   DF .text	0000000000000028  Base        _ZNSt23_Rb_tree_const_iteratorIP10CInfoBlockEppEv
0000000000044efe  w   DF .text	000000000000002e  Base        _ZNSt4pairISt17_Rb_tree_iteratorIS_IKiP10CUDTSocketEEbEC1ERKS5_RKb
000000000004cd94 g    DF .text	0000000000000011  Base        _ZNK12CRcvLossList13getLossLengthEv
00000000000583f6  w   DF .text	0000000000000028  Base        _ZNSt17_Rb_tree_iteratorISt4pairIKiP7CPacketEEppEv
000000000004423c  w   DF .text	0000000000000036  Base        _ZN9__gnu_cxxeqIPP10CUDTSocketSt6vectorIS2_SaIS2_EEEEbRKNS_17__normal_iteratorIT_T0_EESC_
0000000000027e60 g    DF .text	0000000000000a4c  Base        _ZN4CUDT8sendCtrlERKiPvS2_S1_
0000000000035cc2 g    DF .text	00000000000000be  Base        X_NewBoolean
0000000000044ee6  w   DF .text	0000000000000017  Base        _ZNSt6vectorI12CMultiplexerSaIS0_EEC1Ev
00000000000562aa  w   DF .text	0000000000000017  Base        _ZNSaIP4CUDTEC2Ev
000000000003975a  w   DF .text	0000000000000012  Base        _ZNKSt9_IdentityIiEclERKi
0000000000266b80  w   DO .data.rel.ro	0000000000000030  Base        _ZTV17CCCVirtualFactory
0000000000039610  w   DF .text	0000000000000012  Base        _ZNSt8_Rb_treeIiiSt9_IdentityIiESt4lessIiESaIiEE8_M_beginEv
000000000004b9f2 g    DF .text	00000000000000c1  Base        _ZN10CACKWindowC1Ev
0000000000050e8e  w   DF .text	0000000000000048  Base        _ZNSt8_Rb_treeIP10CInfoBlockS1_St9_IdentityIS1_E7CTSCompSaIS1_EE5eraseESt17_Rb_tree_iteratorIS1_E
0000000000050996  w   DF .text	000000000000003d  Base        _ZN9__gnu_cxx13new_allocatorIP10CInfoBlockE9constructEPS2_RKS2_
0000000000055cff  w   DF .text	0000000000000012  Base        _ZNSt8_Rb_treeIiSt4pairIKiP7CPacketESt10_Select1stIS4_ESt4lessIiESaIS4_EE7_S_leftEPSt18_Rb_tree_node_base
000000000002719a g    DF .text	0000000000000226  Base        _ZNK8CChannel6sendtoEPK8sockaddrR7CPacket
0000000000045a66  w   DF .text	00000000000000c2  Base        _ZNSt8_Rb_treeIiSt4pairIKiP10CUDTSocketESt10_Select1stIS4_ESt4lessIiESaIS4_EE10_M_insert_EPKSt18_Rb_tree_node_baseSD_RKS4_
0000000000046e38  w   DF .text	00000000000000ab  Base        _ZNSt6vectorI12CMultiplexerSaIS0_EE5eraseEN9__gnu_cxx17__normal_iteratorIPS0_S2_EE
00000000000273c0 g    DF .text	0000000000000047  Base        _ZNK8CChannel11getPeerAddrEP8sockaddr
0000000000050000  w   DF .text	000000000000000e  Base        _ZN9__gnu_cxx13new_allocatorIP10CInfoBlockE7destroyEPS2_
0000000000039f46  w   DF .text	000000000000000e  Base        _ZNSt12__niter_baseIPiLb0EE3__bES0_
0000000000048c32  w   DF .text	000000000000003b  Base        _ZN6CUDTCCD0Ev
0000000000043f5b  w   DF .text	0000000000000029  Base        _ZNSt18_Rb_tree_node_base10_S_maximumEPS_
00000000000355eb g    DF .text	000000000000008f  Base        Java_com_barchart_udt_SocketUDT_testInvalidClose0
0000000000050960  w   DF .text	0000000000000012  Base        _ZNSt8_Rb_treeIP10CInfoBlockS1_St9_IdentityIS1_E7CTSCompSaIS1_EE11_M_leftmostEv
0000000000044150  w   DF .text	000000000000001c  Base        _ZN9__gnu_cxx17__normal_iteratorIPP10CUDTSocketSt6vectorIS2_SaIS2_EEEC1ERKS3_
0000000000055ebc  w   DF .text	000000000000002a  Base        _ZNKSt6vectorIP4CUDTSaIS1_EE5beginEv
0000000000044720  w   DF .text	0000000000000012  Base        _ZNKSt8_Rb_treeIiSt4pairIKiP10CUDTSocketESt10_Select1stIS4_ESt4lessIiESaIS4_EE4sizeEv
000000000004fc72  w   DF .text	0000000000000022  Base        _ZNKSt23_Rb_tree_const_iteratorIP10CInfoBlockEeqERKS2_
000000000003ff6c g    DF .text	000000000000038a  Base        _ZN10CUDTUnited7connectEiPK8sockaddrRKi
0000000000039844  w   DF .text	0000000000000019  Base        _ZNSt23_Rb_tree_const_iteratorIiEC1EPKSt13_Rb_tree_nodeIiE
00000000000475d8  w   DF .text	00000000000000b8  Base        _ZNKSt6vectorIP10CUDTSocketSaIS1_EE12_M_check_lenEmPKc
0000000000058b14 g    DO .rodata	0000000000000004  Base        _ZN13CUDTException12EUNBOUNDSOCKE
000000000004479a  w   DF .text	0000000000000017  Base        _ZNSt8_Rb_treeIiiSt9_IdentityIiESt4lessIiESaIiEE10_S_minimumEPSt18_Rb_tree_node_base
0000000000055c0a  w   DF .text	000000000000003b  Base        _ZNSt6vectorIN16CRendezvousQueue3CRLESaIS1_EE15_M_erase_at_endEPS1_
0000000000057d0e  w   DF .text	00000000000001ec  Base        _ZNSt6vectorIP4CUDTSaIS1_EE13_M_insert_auxEN9__gnu_cxx17__normal_iteratorIPS1_S3_EERKS1_
0000000000056040  w   DF .text	000000000000000a  Base        _ZN9__gnu_cxx13new_allocatorIP4CUDTED2Ev
000000000003b17e  w   DF .text	000000000000006f  Base        _ZNSt3setIiSt4lessIiESaIiEE6insertERKi
0000000000044c76  w   DF .text	0000000000000017  Base        _ZNSt12_Vector_baseIP10CUDTSocketSaIS1_EE12_Vector_implD1Ev
000000000004da9c g    DF .text	000000000000015b  Base        _ZN12CRcvLossListC1ERKi
0000000000057efa  w   DF .text	00000000000000e3  Base        _ZNSt6vectorIP4CUDTSaIS1_EE6insertEN9__gnu_cxx17__normal_iteratorIPS1_S3_EERKS1_
0000000000058ae4 g    DO .rodata	0000000000000004  Base        _ZN13CUDTException7ETHREADE
000000000003a790  w   DF .text	000000000000002f  Base        _ZSt22__uninitialized_move_aIPiS0_SaIiEET0_T_S3_S2_RT1_
0000000000056336  w   DF .text	0000000000000017  Base        _ZNSaISt13_Rb_tree_nodeISt4pairIKiP7CPacketEEEC2Ev
000000000004cc50 g    DF .text	0000000000000143  Base        _ZNK12CRcvLossList4findERKiS1_
000000000004f24e g    DF .text	0000000000000150  Base        _ZN12CSndLossListC2ERKi
000000000004b202 g    DF .text	0000000000000042  Base        _ZN14CPktTimeWindowD1Ev
000000000002acb2 g    DF .text	000000000000008e  Base        _ZN4CUDT12destroySynchEv
0000000000040ab4 g    DF .text	000000000000018e  Base        _ZN4CUDT6acceptEiP8sockaddrPi
0000000000050084  w   DF .text	000000000000002f  Base        _ZNSt4pairISt17_Rb_tree_iteratorIP10CInfoBlockES3_EC1ERKS3_S6_
0000000000050afc  w   DF .text	000000000000004f  Base        _ZNSt8_Rb_treeIP10CInfoBlockS1_St9_IdentityIS1_E7CTSCompSaIS1_EE15_M_destroy_nodeEPSt13_Rb_tree_nodeIS1_E
000000000003a65d  w   DF .text	000000000000002b  Base        _ZSt13__copy_move_aILb0EPiS0_ET1_T0_S2_S1_
0000000000043f84  w   DF .text	0000000000000032  Base        _ZN10CUDTUnited10TLSDestroyEPv
000000000004aaee g    DF .text	000000000000001e  Base        _ZN14CPktTimeWindow13probe1ArrivalEv
0000000000026fb8 g    DF .text	000000000000001b  Base        _ZN8CChannel13setRcvBufSizeERKi
000000000003ae8e  w   DF .text	0000000000000028  Base        _ZNSt17_Rb_tree_iteratorIiEmmEv
000000000003686d g    DF .text	0000000000000060  Base        UDT_CopyArrayToSet
0000000000044616  w   DF .text	0000000000000019  Base        _ZNSt17_Rb_tree_iteratorISt4pairIKiP10CUDTSocketEEC1EPSt13_Rb_tree_nodeIS4_E
00000000000395e2  w   DF .text	000000000000002e  Base        _ZNSt4pairISt23_Rb_tree_const_iteratorIiEbEC1ERKS1_RKb
000000000004cb5d g    DF .text	00000000000000f2  Base        md5_finish
0000000000039d06  w   DF .text	000000000000000e  Base        _ZN9__gnu_cxx13new_allocatorIiE7destroyEPi
00000000000551c2 g    DF .text	00000000000000ff  Base        _ZN9CSndQueueC1Ev
0000000000055932  w   DF .text	0000000000000036  Base        _ZN9__gnu_cxxneIPN16CRendezvousQueue3CRLESt6vectorIS2_SaIS2_EEEEbRKNS_17__normal_iteratorIT_T0_EESC_
000000000004f02e g    DF .text	0000000000000067  Base        _ZN12CSndLossListD1Ev
0000000000044740  w   DF .text	0000000000000023  Base        _ZSt8_DestroyIPP10CUDTSocketS1_EvT_S3_RSaIT0_E
0000000000056742  w   DF .text	0000000000000027  Base        _ZNSt8_Rb_treeIiSt4pairIKiP7CPacketESt10_Select1stIS4_ESt4lessIiESaIS4_EE11_M_put_nodeEPSt13_Rb_tree_nodeIS4_E
0000000000038243 g    DF .text	000000000000025c  Base        X_IsSockaddrEqualsInetSocketAddress
000000000004fe44  w   DF .text	0000000000000017  Base        _ZNKSt3setIP10CInfoBlock7CTSCompSaIS1_EE5beginEv
00000000000568b0  w   DF .text	0000000000000028  Base        _ZNSt23_Rb_tree_const_iteratorISt4pairIKiP7CPacketEEmmEv
000000000004458d  w   DF .text	000000000000000e  Base        _ZSt8_DestroyIP12CMultiplexerEvT_S2_
0000000000044142  w   DF .text	000000000000000e  Base        _ZNSt12_Vector_baseIP10CUDTSocketSaIS1_EE19_M_get_Tp_allocatorEv
00000000000392e4  w   DF .text	000000000000003a  Base        _ZN7JNIEnv_12SetLongFieldEP8_jobjectP9_jfieldIDl
0000000000050aa0  w   DF .text	0000000000000014  Base        _ZNK9__gnu_cxx13new_allocatorISt13_Rb_tree_nodeIP10CInfoBlockEE8max_sizeEv
0000000000055a70  w   DF .text	000000000000001b  Base        _ZN9__gnu_cxx13new_allocatorIN16CRendezvousQueue3CRLEE7destroyEPS2_
0000000000048d2a g    DF .text	0000000000000011  Base        _ZNK10CSndBuffer14getCurrBufSizeEv
0000000000055bac  w   DF .text	000000000000002d  Base        _ZNSt4pairIKiP7CPacketEC1ERS0_RKS2_
000000000004bab4 g    DF .text	00000000000000c1  Base        _ZN10CACKWindowC2Ev
000000000004fad2 g    DF .text	000000000000007c  Base        _ZN6CCacheC2ERKj
0000000000058af0 g    DO .rodata	0000000000000004  Base        _ZN13CUDTException9EINVRDOFFE
00000000000353f2 g    DF .text	00000000000001f9  Base        UDT_ThrowExceptionUDT_ErrorInfo
000000000003935a  w   DF .text	000000000000002a  Base        _ZN7JNIEnv_12NewStringUTFEPKc
0000000000058ae8 g    DO .rodata	0000000000000004  Base        _ZN13CUDTException6ENOBUFE
00000000000508f2  w   DF .text	0000000000000017  Base        _ZNSt8_Rb_treeIP10CInfoBlockS1_St9_IdentityIS1_E7CTSCompSaIS1_EEC1Ev
0000000000050cbe  w   DF .text	000000000000004f  Base        _ZNSt8_Rb_treeIP10CInfoBlockS1_St9_IdentityIS1_E7CIPCompSaIS1_EE15_M_destroy_nodeEPSt13_Rb_tree_nodeIS1_E
000000000004fc5c  w   DF .text	0000000000000015  Base        _ZNKSt23_Rb_tree_const_iteratorIP10CInfoBlockEdeEv
0000000000048c6e  w   DF .text	000000000000003b  Base        _ZN6CUDTCCD1Ev
0000000000039206  w   DF .text	0000000000000032  Base        _ZN7JNIEnv_11GetIntFieldEP8_jobjectP9_jfieldID
0000000000033bea g    DF .text	0000000000000016  Base        _ZNK7CPacket9getMsgSeqEv
00000000000458e8  w   DF .text	0000000000000037  Base        _ZNSt6vectorIP10CUDTSocketSaIS1_EED1Ev
0000000000058b60 g    DO .rodata	0000000000000004  Base        _ZN7CPacket13m_iPktHdrSizeE
00000000000352a3 g    DF .text	000000000000014f  Base        UDT_NewExceptionUDT
000000000004fc3a  w   DF .text	0000000000000022  Base        _ZNKSt23_Rb_tree_const_iteratorIP10CInfoBlockEneERKS2_
0000000000055ced  w   DF .text	0000000000000012  Base        _ZNSt8_Rb_treeIiSt4pairIKiP7CPacketESt10_Select1stIS4_ESt4lessIiESaIS4_EE8_S_rightEPSt18_Rb_tree_node_base
0000000000050336  w   DF .text	0000000000000084  Base        _ZNSt8_Rb_treeIP10CInfoBlockS1_St9_IdentityIS1_E7CTSCompSaIS1_EE14_M_lower_boundEPSt13_Rb_tree_nodeIS1_ES9_RKS1_
00000000000456da  w   DF .text	0000000000000017  Base        _ZNSt3mapIiP10CUDTSocketSt4lessIiESaISt4pairIKiS1_EEED1Ev
0000000000044890  w   DF .text	0000000000000017  Base        _ZNSaI12CMultiplexerED2Ev
0000000000039438  w   DF .text	0000000000000032  Base        _ZN7JNIEnv_19GetIntArrayElementsEP10_jintArrayPh
0000000000058b04 g    DO .rodata	0000000000000004  Base        _ZN13CUDTException10EBOUNDSOCKE
0000000000050132  w   DF .text	0000000000000084  Base        _ZNSt8_Rb_treeIP10CInfoBlockS1_St9_IdentityIS1_E7CIPCompSaIS1_EE14_M_lower_boundEPSt13_Rb_tree_nodeIS1_ES9_RKS1_
0000000000033256 g    DF .text	0000000000000025  Base        _ZN6CGuardD1Ev
0000000000058b50  w   DO .rodata	0000000000000010  Base        _ZTS13CUDTException
0000000000044c5e  w   DF .text	0000000000000017  Base        _ZNSaIP10CUDTSocketED2Ev
00000000000501b6  w   DF .text	000000000000009d  Base        _ZNSt8_Rb_treeIP10CInfoBlockS1_St9_IdentityIS1_E7CIPCompSaIS1_EE4findERKS1_
00000000000390ac  w   DF .text	0000000000000027  Base        _ZN7JNIEnv_5ThrowEP11_jthrowable
000000000005029a  w   DF .text	0000000000000023  Base        _ZNSt8_Rb_treeIP10CInfoBlockS1_St9_IdentityIS1_E7CTSCompSaIS1_EE6_S_keyEPKSt13_Rb_tree_nodeIS1_E
000000000003912e  w   DF .text	0000000000000032  Base        _ZN7JNIEnv_12IsSameObjectEP8_jobjectS1_
0000000000044630  w   DF .text	0000000000000026  Base        _ZNSt8_Rb_treeIiSt4pairIKiP10CUDTSocketESt10_Select1stIS4_ESt4lessIiESaIS4_EE5beginEv
0000000000039faa  w   DF .text	000000000000010b  Base        _ZN7JNIEnv_16CallObjectMethodEP8_jobjectP10_jmethodIDz
0000000000044f2c  w   DF .text	0000000000000012  Base        _ZNSt8_Rb_treeIiSt4pairIKiP10CUDTSocketESt10_Select1stIS4_ESt4lessIiESaIS4_EE8_S_valueEPKSt13_Rb_tree_nodeIS4_E
000000000005770c  w   DF .text	0000000000000065  Base        _ZNSt20__copy_move_backwardILb0ELb1ESt26random_access_iterator_tagE13__copy_move_bIP4CUDTEEPT_PKS5_S8_S6_
0000000000039c22  w   DF .text	0000000000000037  Base        _ZSt4findIN9__gnu_cxx17__normal_iteratorIPiSt6vectorIiSaIiEEEEiET_S7_S7_RKT0_


